(dp0
S's9_featuren'
p1
S'feature0'
p2
sS's9_featureo'
p3
S'feature1'
p4
sS's9_featurel'
p5
S'feature2'
p6
sS's9_featurem'
p7
S'feature3'
p8
sS's9_featurej'
p9
S'feature4'
p10
sS'l1_featuremaxval'
p11
S'feature5'
p12
sS's9_featureh'
p13
S'feature6'
p14
sS's9_featurei'
p15
S'feature7'
p16
sS's9_featuref'
p17
S'feature8'
p18
sS's9_featured'
p19
S'feature9'
p20
sS's9_featureb'
p21
S'feature10'
p22
sS's9_featurec'
p23
S'feature11'
p24
sS'BigramCursorKind.BINARY_OPERATORCursorKind.UNEXPOSED_EXPRBLANKrazn'
p25
S'feature12'
p26
sS's9_featurea'
p27
S'feature13'
p28
sS's7_featurelvl'
p29
S'feature14'
p30
sS's9_featurez'
p31
S'feature15'
p32
sS'BigramCursorKind.CALL_EXPRCursorKind.DECL_REF_EXPRchecknew_y'
p33
S'feature16'
p34
sS'BigramCursorKind.CALL_EXPRCursorKind.DECL_REF_EXPRchecknew_x'
p35
S'feature55'
p36
sS'l1_feature"Izlaz_gcj.txt"'
p37
S'feature59'
p38
sS's9_featurew'
p39
S'feature19'
p40
sS's9_featuret'
p41
S'feature20'
p42
sS's9_featurer'
p43
S'feature21'
p44
sS's9_features'
p45
S'feature22'
p46
sS's9_featurep'
p47
S'feature23'
p48
sS's9_featurek'
p49
S'feature24'
p50
sS's9_featureN'
p51
S'feature25'
p52
sS's9_featureL'
p53
S'feature26'
p54
sS's7_featurehi'
p55
S'feature27'
p56
sS'BigramCursorKind.BINARY_OPERATORCursorKind.UNEXPOSED_EXPRBLANKtt'
p57
S'feature28'
p58
sS's3_fatureCursorKind.CALL_EXPR'
p59
S'feature29'
p60
sS's9_featureD'
p61
S'feature30'
p62
sS'l6_featurecppKeywordsvoid'
p63
S'feature31'
p64
sS's9_featureB'
p65
S'feature32'
p66
sS's9_featureA'
p67
S'feature33'
p68
sS'BigramCursorKind.BINARY_OPERATORCursorKind.UNEXPOSED_EXPRBLANKtc'
p69
S'feature34'
p70
sS's9_featureT'
p71
S'feature36'
p72
sS's9_featureS'
p73
S'feature37'
p74
sS's7_featuremax_int'
p75
S'feature1902'
p76
sS'BigramCursorKind.VAR_DECLCursorKind.INIT_LIST_EXPRdyBLANK'
p77
S'feature40'
p78
sS's7_featuresrc'
p79
S'feature41'
p80
sS'l1_feature//  cout<<dst[h-1][w-1]<<endl;'
p81
S'feature42'
p82
sS'l1_feature55'
p83
S'feature43'
p84
sS'l1_feature50'
p85
S'feature44'
p86
sS'BigramCursorKind.BINARY_OPERATORCursorKind.UNEXPOSED_EXPRBLANKt2'
p87
S'feature45'
p88
sS'BigramCursorKind.BINARY_OPERATORCursorKind.UNEXPOSED_EXPRBLANKt1'
p89
S'feature46'
p90
sS'BigramCursorKind.DECL_STMTCursorKind.VAR_DECLBLANKadd_c'
p91
S'feature199'
p92
sS'l1_featurectr2'
p93
S'feature48'
p94
sS'l1_feature// __|'
p95
S'feature49'
p96
sS's9_featureex'
p97
S'feature51'
p98
sS's7_featurea'
p99
S'feature2208'
p100
sS's9_featurex'
p101
S'feature52'
p102
sS's7tfidf_featuretest'
p103
S'feature53'
p104
sS'l1_featurels'
p105
S'feature54'
p106
sS'l1_feature// restore ok[][]'
p107
S'feature17'
p108
sS'BigramCursorKind.DECL_STMTCursorKind.VAR_DECLBLANKress'
p109
S'feature56'
p110
sS'l6_featurecppKeywordslong'
p111
S'feature57'
p112
sS's7tfidf_featurelvl'
p113
S'feature58'
p114
sS's9_featurev'
p115
S'feature18'
p116
sS'l1_feature// assuming the rxc subgrid is not surrounded by mines'
p117
S'feature60'
p118
sS'l1_featurelo'
p119
S'feature61'
p120
sS'l1_featurell'
p121
S'feature62'
p122
sS's7tfidf_featuretest_case'
p123
S'feature63'
p124
sS'NodeTypeAvgDepCursorKind.CALL_EXPR'
p125
S'feature64'
p126
sS'BigramCursorKind.CALL_EXPRCursorKind.DECL_REF_EXPRrotatestart_y'
p127
S'feature65'
p128
sS'BigramCursorKind.CALL_EXPRCursorKind.DECL_REF_EXPRrotatestart_x'
p129
S'feature66'
p130
sS'BigramCursorKind.VAR_DECLCursorKind.BINARY_OPERATORdiffBLANK'
p131
S'feature67'
p132
sS's7_featurerazn'
p133
S'feature68'
p134
sS's4_featureCursorKind.UNARY_OPERATOR'
p135
S'feature69'
p136
sS'BigramCursorKind.CALL_EXPRCursorKind.UNEXPOSED_EXPRmovemove'
p137
S'feature70'
p138
sS's7tfidf_featuremaxval'
p139
S'feature71'
p140
sS's7_featurediff'
p141
S'feature72'
p142
sS'BigramCursorKind.UNEXPOSED_EXPRCursorKind.UNEXPOSED_EXPRstatestate'
p143
S'feature73'
p144
sS's7_featuredfs'
p145
S'feature74'
p146
sS'l1_featuresrc'
p147
S'feature75'
p148
sS'BigramCursorKind.VAR_DECLCursorKind.BINARY_OPERATORhaveBLANK'
p149
S'feature76'
p150
sS'l1_featurecerr'
p151
S'feature1907'
p152
sS'BigramCursorKind.BINARY_OPERATORCursorKind.UNEXPOSED_EXPRBLANKstart_y'
p153
S'feature78'
p154
sS's7tfidf_featurer2'
p155
S'feature79'
p156
sS's7tfidf_featurer1'
p157
S'feature80'
p158
sS'BigramCursorKind.FUNCTION_DECLCursorKind.PARM_DECLsolvesecond'
p159
S'feature81'
p160
sS'BigramCursorKind.UNEXPOSED_EXPRCursorKind.PAREN_EXPRBLANKBLANK'
p161
S'feature82'
p162
sS'BigramCursorKind.COMPOUND_ASSIGNMENT_OPERATORCursorKind.UNEXPOSED_EXPRBLANKf'
p163
S'feature83'
p164
sS'BigramCursorKind.FUNCTION_DECLCursorKind.COMPOUND_STMTunion_sets2BLANK'
p165
S'feature84'
p166
sS'l6_featurecppKeywordsand_eq'
p167
S'feature85'
p168
sS'BigramCursorKind.VAR_DECLCursorKind.UNEXPOSED_EXPRxBLANK'
p169
S'feature87'
p170
sS'BigramCursorKind.IF_STMTCursorKind.CALL_EXPRBLANKcheck'
p171
S'feature88'
p172
sS'BigramCursorKind.COMPOUND_ASSIGNMENT_OPERATORCursorKind.UNEXPOSED_EXPRBLANKt'
p173
S'feature89'
p174
sS'BigramCursorKind.COMPOUND_ASSIGNMENT_OPERATORCursorKind.UNEXPOSED_EXPRBLANKp'
p175
S'feature90'
p176
sS'BigramCursorKind.UNARY_OPERATORCursorKind.DECL_REF_EXPRBLANKsol'
p177
S'feature91'
p178
sS's3_fatureCursorKind.UNEXPOSED_DECL'
p179
S'feature92'
p180
sS'BigramCursorKind.VAR_DECLCursorKind.INTEGER_LITERALxBLANK'
p181
S'feature1515'
p182
sS'BigramCursorKind.ARRAY_SUBSCRIPT_EXPRCursorKind.UNEXPOSED_EXPRBLANKdst'
p183
S'feature785'
p184
sS'BigramCursorKind.DECL_STMTCursorKind.VAR_DECLBLANKa'
p185
S'feature1516'
p186
sS'BigramCursorKind.CALL_EXPRCursorKind.UNEXPOSED_EXPRsolve_pmax_int'
p187
S'feature96'
p188
sS'BigramCursorKind.DECL_STMTCursorKind.VAR_DECLBLANKlo'
p189
S'feature97'
p190
sS'BigramCursorKind.VAR_DECLCursorKind.UNARY_OPERATORmax_wBLANK'
p191
S'feature787'
p192
sS's9_featurenew_y'
p193
S'feature99'
p194
sS's9_featurenew_x'
p195
S'feature100'
p196
sS'BigramCursorKind.BINARY_OPERATORCursorKind.UNEXPOSED_EXPRBLANKeps'
p197
S'feature101'
p198
sS'BigramCursorKind.DECL_STMTCursorKind.VAR_DECLBLANKm'
p199
S'feature1519'
p200
sS's7tfidf_featuredp'
p201
S'feature102'
p202
sS'BigramCursorKind.VAR_DECLCursorKind.UNEXPOSED_EXPRki'
p203
S'feature103'
p204
sS'BigramCursorKind.DECL_STMTCursorKind.VAR_DECLBLANKj'
p205
S'feature1520'
p206
sS'BigramCursorKind.COMPOUND_STMTCursorKind.IF_STMTBLANKBLANK'
p207
S'feature105'
p208
sS'NodeTypeAvgDepCursorKind.USING_DIRECTIVE'
p209
S'feature106'
p210
sS'BigramCursorKind.BINARY_OPERATORCursorKind.UNEXPOSED_EXPRBLANKwaiting'
p211
S'feature107'
p212
sS'l1_featuretx1'
p213
S'feature108'
p214
sS'BigramCursorKind.COMPOUND_STMTCursorKind.BREAK_STMTBLANKBLANK'
p215
S'feature109'
p216
sS'l1_featurecorners'
p217
S'feature110'
p218
sS's9_featurepush'
p219
S'feature111'
p220
sS'l1_featurereset'
p221
S'feature112'
p222
sS"l1_feature' '"
p223
S'feature652'
p224
sS's4_featureCursorKind.TYPEDEF_DECL'
p225
S'feature116'
p226
sS'NodeTypeAvgDepCursorKind.DECL_REF_EXPR'
p227
S'feature117'
p228
sS'maxdepthnode'
p229
S'feature118'
p230
sS'l6_featurecppKeywordsreturn'
p231
S'feature119'
p232
sS's9_featuresrc'
p233
S'feature121'
p234
sS'BigramCursorKind.INIT_LIST_EXPRCursorKind.UNARY_OPERATORBLANKBLANK'
p235
S'feature122'
p236
sS'l1_featurebitset'
p237
S'feature123'
p238
sS'l1_featurebuf'
p239
S'feature124'
p240
sS'NodeTypeAvgDepCursorKind.COMPOUND_ASSIGNMENT_OPERATOR'
p241
S'feature125'
p242
sS's9_featurejj'
p243
S'feature126'
p244
sS's7tfidf_featureval'
p245
S'feature127'
p246
sS's4_featureCursorKind.STRING_LITERAL'
p247
S'feature128'
p248
sS's9_featureradius'
p249
S'feature86'
p250
sS'l1_featuredim'
p251
S'feature130'
p252
sS'BigramCursorKind.FUNCTION_DECLCursorKind.PARM_DECLcheckcy'
p253
S'feature1531'
p254
sS's7tfidf_featurefind_set'
p255
S'feature132'
p256
sS's9_featurelvl'
p257
S'feature133'
p258
sS's4_featureCursorKind.UNEXPOSED_EXPR'
p259
S'feature134'
p260
sS'BigramCursorKind.FOR_STMTCursorKind.BINARY_OPERATORBLANKBLANK'
p261
S'feature135'
p262
sS'l1_feature/*\r\n\t  int ans=bubble(0,ind-1)+bubble2(ind+1,n-1);\r\n\t  \r\n\t  printf("Case #%d: %d\\n",cs+1,ans);*/'
p263
S'feature136'
p264
sS'l1_feature": Fegla Won\\n"'
p265
S'feature137'
p266
sS's7_featuresol'
p267
S'feature138'
p268
sS'l1_featurelvl'
p269
S'feature139'
p270
sS'l1_featurepack'
p271
S'feature140'
p272
sS'BigramCursorKind.DECL_STMTCursorKind.VAR_DECLBLANKA'
p273
S'feature576'
p274
sS's7tfidf_featurepush'
p275
S'feature142'
p276
sS's9_featurexc'
p277
S'feature143'
p278
sS'l6_featurecppKeywordssigned'
p279
S'feature144'
p280
sS"l1_feature'y'"
p281
S'feature145'
p282
sS's7tfidf_featurex'
p283
S'feature146'
p284
sS's7tfidf_featurey'
p285
S'feature147'
p286
sS's7tfidf_featurez'
p287
S'feature148'
p288
sS'l2if'
p289
S'feature149'
p290
sS'BigramCursorKind.ARRAY_SUBSCRIPT_EXPRCursorKind.UNEXPOSED_EXPRBLANKr2'
p291
S'feature150'
p292
sS"l1_feature'o'"
p293
S'feature881'
p294
sS's7tfidf_featurep'
p295
S'feature152'
p296
sS's7_featurecount'
p297
S'feature153'
p298
sS's7tfidf_featurer'
p299
S'feature154'
p300
sS's7tfidf_features'
p301
S'feature155'
p302
sS's7tfidf_featuret'
p303
S'feature156'
p304
sS's7tfidf_featurev'
p305
S'feature157'
p306
sS's7tfidf_featurew'
p307
S'feature158'
p308
sS's7tfidf_featureh'
p309
S'feature159'
p310
sS's7tfidf_featurei'
p311
S'feature160'
p312
sS's7tfidf_featurej'
p313
S'feature161'
p314
sS's7tfidf_featurek'
p315
S'feature162'
p316
sS's7tfidf_featurel'
p317
S'feature163'
p318
sS's7tfidf_featurem'
p319
S'feature164'
p320
sS's7tfidf_featuren'
p321
S'feature165'
p322
sS'BigramCursorKind.COMPOUND_ASSIGNMENT_OPERATORCursorKind.DECL_REF_EXPRBLANKress'
p323
S'feature166'
p324
sS's7tfidf_featuremin_m'
p325
S'feature167'
p326
sS's7tfidf_featurea'
p327
S'feature168'
p328
sS's7tfidf_featureb'
p329
S'feature169'
p330
sS's7tfidf_featurec'
p331
S'feature170'
p332
sS's7tfidf_featured'
p333
S'feature171'
p334
sS's7tfidf_featuremin_h'
p335
S'feature172'
p336
sS's7tfidf_featuref'
p337
S'feature1201'
p338
sS's7tfidf_featuresoly'
p339
S'feature174'
p340
sS's7tfidf_featuresolx'
p341
S'feature175'
p342
sS'l1_feature"NO\\n"'
p343
S'feature946'
p344
sS's7tfidf_featureT'
p345
S'feature177'
p346
sS's7_featuregetans'
p347
S'feature178'
p348
sS'BigramCursorKind.FUNCTION_DECLCursorKind.PARM_DECLfind_set2v'
p349
S'feature179'
p350
sS's7tfidf_featureL'
p351
S'feature180'
p352
sS'l1_featurecsize'
p353
S'feature181'
p354
sS's7tfidf_featureN'
p355
S'feature182'
p356
sS's9_featuredx'
p357
S'feature183'
p358
sS's7tfidf_featureA'
p359
S'feature184'
p360
sS's7tfidf_featureB'
p361
S'feature185'
p362
sS'l1_featurequeue'
p363
S'feature186'
p364
sS's9_featuredp'
p365
S'feature187'
p366
sS's7_featureyc'
p367
S'feature188'
p368
sS's7_featurectr'
p369
S'feature189'
p370
sS'l1_feature"Case #%d: %.10lf\\n"'
p371
S'feature1933'
p372
sS's7tfidf_featureos'
p373
S'feature1548'
p374
sS'BigramCursorKind.DECL_STMTCursorKind.VAR_DECLBLANKvalid'
p375
S'feature192'
p376
sS'l1_feature"%d%d%d"'
p377
S'feature193'
p378
sS'BigramCursorKind.DECL_STMTCursorKind.VAR_DECLBLANKsrc'
p379
S'feature194'
p380
sS'BigramCursorKind.ARRAY_SUBSCRIPT_EXPRCursorKind.UNEXPOSED_EXPRBLANKsel'
p381
S'feature195'
p382
sS'l6_featurecppKeywordssizeof'
p383
S'feature196'
p384
sS'l1_feature/*\r\n\t  for(int i=0; i<n; i++){\r\n\t     printf("%d: ",i);\r\n\t\t for(int j=0; j<adj[i].size(); j++) printf("%d ",adj[i][j]);\r\n\t\t puts("");\r\n\t  }\r\n\t  puts("");*/'
p385
S'feature197'
p386
sS'BigramCursorKind.ARRAY_SUBSCRIPT_EXPRCursorKind.UNEXPOSED_EXPRBLANKpred'
p387
S'feature198'
p388
sS'BigramCursorKind.BINARY_OPERATORCursorKind.UNEXPOSED_EXPRBLANKtests'
p389
S'feature47'
p390
sS'BigramCursorKind.COMPOUND_STMTCursorKind.WHILE_STMTBLANKBLANK'
p391
S'feature200'
p392
sS's7_featureparent'
p393
S'feature201'
p394
sS"l1_feature'c'"
p395
S'feature202'
p396
sS'l1_featureusing'
p397
S'feature203'
p398
sS's7_featureeps'
p399
S'feature204'
p400
sS'l1_featurekey'
p401
S'feature205'
p402
sS's7_featurenode'
p403
S'feature1550'
p404
sS'l1_feature5'
p405
S'feature207'
p406
sS'l1_feature4'
p407
S'feature208'
p408
sS'l1_feature7'
p409
S'feature209'
p410
sS'l1_feature6'
p411
S'feature210'
p412
sS'l1_feature1'
p413
S'feature211'
p414
sS'l1_feature0'
p415
S'feature212'
p416
sS'l1_feature3'
p417
S'feature1083'
p418
sS'l1_feature2'
p419
S'feature214'
p420
sS'l1_feature='
p421
S'feature215'
p422
sS'l1_feature<'
p423
S'feature216'
p424
sS'l1_feature>'
p425
S'feature217'
p426
sS'l1_feature8'
p427
S'feature218'
p428
sS'l1_feature;'
p429
S'feature219'
p430
sS'l1_feature:'
p431
S'feature220'
p432
sS'l1_feature"%lf%lf%lf"'
p433
S'feature1107'
p434
sS'l1_feature&'
p435
S'feature222'
p436
sS'BigramCursorKind.CALL_EXPRCursorKind.BINARY_OPERATORsolve_pBLANK'
p437
S'feature223'
p438
sS'l1_feature#'
p439
S'feature224'
p440
sS'l1_feature20'
p441
S'feature225'
p442
sS'l1_feature,'
p443
S'feature226'
p444
sS'l1_feature22'
p445
S'feature1121'
p446
sS'l1_feature.'
p447
S'feature228'
p448
sS'l1_feature)'
p449
S'feature229'
p450
sS'l1_feature('
p451
S'feature230'
p452
sS'l1_feature+'
p453
S'feature231'
p454
sS'l1_feature*'
p455
S'feature232'
p456
sS's7tfidf_featureres'
p457
S'feature233'
p458
sS'BigramCursorKind.BINARY_OPERATORCursorKind.UNEXPOSED_EXPRBLANKadd_c'
p459
S'feature234'
p460
sS'BigramCursorKind.BINARY_OPERATORCursorKind.DECL_REF_EXPRBLANKk'
p461
S'feature235'
p462
sS'NodeTypeAvgDepCursorKind.INIT_LIST_EXPR'
p463
S'feature236'
p464
sS's7tfidf_featureret'
p465
S'feature237'
p466
sS's9_featurecurr'
p467
S'feature238'
p468
sS'BigramCursorKind.BINARY_OPERATORCursorKind.DECL_REF_EXPRBLANKb'
p469
S'feature239'
p470
sS'l1_featuredest'
p471
S'feature240'
p472
sS'BigramCursorKind.DECL_STMTCursorKind.VAR_DECLBLANKsituation'
p473
S'feature241'
p474
sS's3_fatureCursorKind.NULL_STMT'
p475
S'feature242'
p476
sS'BigramCursorKind.BINARY_OPERATORCursorKind.DECL_REF_EXPRBLANKx'
p477
S'feature243'
p478
sS'BigramCursorKind.UNARY_OPERATORCursorKind.UNEXPOSED_EXPRBLANKi'
p479
S'feature244'
p480
sS's7tfidf_featuremove'
p481
S'feature1165'
p482
sS'BigramCursorKind.DECL_STMTCursorKind.VAR_DECLBLANKnew_x'
p483
S'feature246'
p484
sS'BigramCursorKind.DECL_STMTCursorKind.VAR_DECLBLANKadd_r'
p485
S'feature247'
p486
sS'BigramCursorKind.RETURN_STMTCursorKind.UNEXPOSED_EXPRBLANKv'
p487
S'feature248'
p488
sS'l1_featurefront'
p489
S'feature249'
p490
sS'BigramCursorKind.BINARY_OPERATORCursorKind.DECL_REF_EXPRBLANKbuf'
p491
S'feature250'
p492
sS'BigramCursorKind.BINARY_OPERATORCursorKind.DECL_REF_EXPRBLANKv'
p493
S'feature251'
p494
sS'l1_featureu'
p495
S'feature252'
p496
sS'l1_featuret'
p497
S'feature253'
p498
sS'l1_featurew'
p499
S'feature254'
p500
sS'l1_featurev'
p501
S'feature255'
p502
sS'l1_featureq'
p503
S'feature256'
p504
sS'l1_featurep'
p505
S'feature257'
p506
sS'l1_features'
p507
S'feature258'
p508
sS'l1_featurer'
p509
S'feature259'
p510
sS'l1_feature}'
p511
S'feature260'
p512
sS'BigramCursorKind.DECL_STMTCursorKind.VAR_DECLBLANKrazn'
p513
S'feature1196'
p514
sS'l1_featurey'
p515
S'feature262'
p516
sS'l1_featurex'
p517
S'feature263'
p518
sS'l1_feature{'
p519
S'feature264'
p520
sS'l1_featurez'
p521
S'feature265'
p522
sS'l1_featured'
p523
S'feature266'
p524
sS'l1_featureg'
p525
S'feature267'
p526
sS'l1_featuref'
p527
S'feature268'
p528
sS'l1_featurea'
p529
S'feature269'
p530
sS'l1_featurec'
p531
S'feature270'
p532
sS'l1_featureb'
p533
S'feature271'
p534
sS'l1_featurem'
p535
S'feature272'
p536
sS'l1_featurel'
p537
S'feature273'
p538
sS'l1_featureo'
p539
S'feature274'
p540
sS'l1_featuren'
p541
S'feature275'
p542
sS'l1_featurei'
p543
S'feature1220'
p544
sS'l1_featureh'
p545
S'feature277'
p546
sS'l1_featurek'
p547
S'feature278'
p548
sS'l1_featureswapped'
p549
S'feature1228'
p550
sS'BigramCursorKind.COMPOUND_STMTCursorKind.CALL_EXPRBLANKsolve_p'
p551
S'feature280'
p552
sS'l1_featureT'
p553
S'feature281'
p554
sS'l1_featureW'
p555
S'feature282'
p556
sS's7_featureok'
p557
S'feature283'
p558
sS'l1_featureP'
p559
S'feature284'
p560
sS'l1_featureS'
p561
S'feature285'
p562
sS'l1_featureelse'
p563
S'feature286'
p564
sS'l1_feature]'
p565
S'feature287'
p566
sS"l1_feature'd'"
p567
S'feature288'
p568
sS's9_featurepred'
p569
S'feature289'
p570
sS'l1_feature['
p571
S'feature290'
p572
sS'l1_featureD'
p573
S'feature291'
p574
sS'BigramCursorKind.BINARY_OPERATORCursorKind.UNEXPOSED_EXPRBLANKi'
p575
S'feature1562'
p576
sS'l1_featureA'
p577
S'feature293'
p578
sS'l6_featurecppKeywordsmutable'
p579
S'feature1254'
p580
sS'l1_featureB'
p581
S'feature295'
p582
sS'l1_featureM'
p583
S'feature296'
p584
sS'l1_featureL'
p585
S'feature297'
p586
sS's9_featureppow'
p587
S'feature1253'
p588
sS's7_featureou'
p589
S'feature299'
p590
sS'l1_featureK'
p591
S'feature300'
p592
sS"l1_feature'1'"
p593
S'feature301'
p594
sS'l1_featurevector'
p595
S'feature302'
p596
sS'l1_featurefalse'
p597
S'feature303'
p598
sS'l1_feature/*if (x>cx)\n\t\t\t\tnew_x++;\n\t\t\telse\n\t\t\t\tnew_x--;\n\t\t\tnew_y = (y-start_y)*(new_x-start_x)/(x-start_x)+start_y;\n\t\t\tif (abs(new_x-cx)+abs(new_y-cy)>1)*/'
p599
S'feature1282'
p600
sS's7tfidf_featureadd_c'
p601
S'feature305'
p602
sS'BigramCursorKind.DECL_STMTCursorKind.VAR_DECLBLANKcsize'
p603
S'feature1291'
p604
sS'l1_featuress'
p605
S'feature1566'
p606
sS's7tfidf_featureadd_r'
p607
S'feature309'
p608
sS'l1_featuredefine'
p609
S'feature310'
p610
sS'BigramCursorKind.BINARY_OPERATORCursorKind.UNEXPOSED_EXPRBLANKf'
p611
S'feature1569'
p612
sS's7_featuredst'
p613
S'feature312'
p614
sS'BigramCursorKind.BINARY_OPERATORCursorKind.UNEXPOSED_EXPRBLANKmaxval'
p615
S'feature313'
p616
sS's7tfidf_features2'
p617
S'feature314'
p618
sS'BigramCursorKind.VAR_DECLCursorKind.INTEGER_LITERALtcBLANK'
p619
S'feature315'
p620
sS'BigramCursorKind.CALL_EXPRCursorKind.UNEXPOSED_EXPRcheck2i'
p621
S'feature316'
p622
sS'l1_featuresol'
p623
S'feature1355'
p624
sS'BigramCursorKind.VAR_DECLCursorKind.INTEGER_LITERALzBLANK'
p625
S'feature318'
p626
sS'l1_featurehere'
p627
S'feature319'
p628
sS'BigramCursorKind.UNARY_OPERATORCursorKind.DECL_REF_EXPRBLANKans'
p629
S'feature320'
p630
sS'l1_featuremp'
p631
S'feature321'
p632
sS'BigramCursorKind.VAR_DECLCursorKind.INTEGER_LITERALinvBLANK'
p633
S'feature1786'
p634
sS's9_featuretests'
p635
S'feature322'
p636
sS'l1_featuremx'
p637
S'feature323'
p638
sS'BigramCursorKind.VAR_DECLCursorKind.FLOATING_LITERALepsBLANK'
p639
S'feature324'
p640
sS's4_featureCursorKind.DO_STMT'
p641
S'feature1945'
p642
sS'l14feature'
p643
S'feature326'
p644
sS'l1_featuremn'
p645
S'feature327'
p646
sS'l1_featuremk'
p647
S'feature328'
p648
sS'NodeTypeAvgDepCursorKind.CXX_BOOL_LITERAL_EXPR'
p649
S'feature1947'
p650
sS'l1_featurestack'
p651
S'feature330'
p652
sS'BigramCursorKind.VAR_DECLCursorKind.BINARY_OPERATORresBLANK'
p653
S'feature331'
p654
sS'l1_featureres'
p655
S'feature1948'
p656
sS'BigramCursorKind.IF_STMTCursorKind.UNEXPOSED_EXPRBLANKstate'
p657
S'feature333'
p658
sS'BigramCursorKind.CALL_EXPRCursorKind.UNEXPOSED_EXPRdfsdfs'
p659
S'feature334'
p660
sS'BigramCursorKind.FUNCTION_DECLCursorKind.PARM_DECLsolvefirst'
p661
S'feature335'
p662
sS's7tfidf_featuresx'
p663
S'feature336'
p664
sS'BigramCursorKind.VAR_DECLCursorKind.INTEGER_LITERALsBLANK'
p665
S'feature337'
p666
sS's7tfidf_featuresz'
p667
S'feature338'
p668
sS'BigramCursorKind.VAR_DECLCursorKind.INTEGER_LITERALtest_caseBLANK'
p669
S'feature339'
p670
sS'l1_featureN'
p671
S'feature340'
p672
sS'l1_featurety1'
p673
S'feature341'
p674
sS'l1_featurety2'
p675
S'feature342'
p676
sS'BigramCursorKind.VAR_DECLCursorKind.DECL_REF_EXPRtmaxn'
p677
S'feature343'
p678
sS'l1_featuregreater'
p679
S'feature344'
p680
sS'BigramCursorKind.DECL_STMTCursorKind.VAR_DECLBLANKans'
p681
S'feature345'
p682
sS'BigramCursorKind.VAR_DECLCursorKind.BINARY_OPERATORpcBLANK'
p683
S'feature1760'
p684
sS's3_fatureCursorKind.COMPOUND_ASSIGNMENT_OPERATOR'
p685
S'feature346'
p686
sS's7tfidf_featurestruct rect'
p687
S'feature347'
p688
sS's9_featurediff'
p689
S'feature348'
p690
sS'l1_featurefind_set2'
p691
S'feature349'
p692
sS's7tfidf_featurewaterLevel'
p693
S'feature350'
p694
sS'l1_featuretests'
p695
S'feature351'
p696
sS'l13feature'
p697
S'feature352'
p698
sS's3_fatureCursorKind.BREAK_STMT'
p699
S'feature353'
p700
sS'l1_feature"C-small-attempt2.in"'
p701
S'feature354'
p702
sS'l1_featurestdout'
p703
S'feature355'
p704
sS's7tfidf_featuredist1'
p705
S'feature356'
p706
sS's7tfidf_featuredist2'
p707
S'feature357'
p708
sS'l1_featurerazn'
p709
S'feature358'
p710
sS'BigramCursorKind.DECL_STMTCursorKind.VAR_DECLBLANKcx'
p711
S'feature1919'
p712
sS'l1_featuresolve_p'
p713
S'feature817'
p714
sS's4_featureCursorKind.IF_STMT'
p715
S'feature1577'
p716
sS'l1_featureparent'
p717
S'feature361'
p718
sS'l1_feature//cout<<endl;'
p719
S'feature362'
p720
sS'BigramCursorKind.DECL_STMTCursorKind.VAR_DECLBLANKinv'
p721
S'feature363'
p722
sS's9_featurevis'
p723
S'feature364'
p724
sS'BigramCursorKind.UNARY_OPERATORCursorKind.INTEGER_LITERALBLANKBLANK'
p725
S'feature365'
p726
sS'NodeTypeAvgDepCursorKind.FOR_STMT'
p727
S'feature366'
p728
sS's9_featurestate'
p729
S'feature367'
p730
sS'BigramCursorKind.DECL_STMTCursorKind.VAR_DECLBLANKind'
p731
S'feature368'
p732
sS's7_featuremove'
p733
S'feature369'
p734
sS's7tfidf_featurehere'
p735
S'feature370'
p736
sS'BigramCursorKind.DECL_STMTCursorKind.VAR_DECLBLANKos'
p737
S'feature371'
p738
sS'l1_feature//cout<<x<<" "<<y<<" "<<r<<" "<<c<<" "<<m<<endl;'
p739
S'feature372'
p740
sS'BigramCursorKind.DECL_STMTCursorKind.VAR_DECLBLANKou'
p741
S'feature373'
p742
sS'BigramCursorKind.DECL_STMTCursorKind.VAR_DECLBLANKok'
p743
S'feature374'
p744
sS's7tfidf_featuresum'
p745
S'feature820'
p746
sS'l1_featurecstdio'
p747
S'feature376'
p748
sS'NodeTypeAvgDepCursorKind.NAMESPACE_REF'
p749
S'feature377'
p750
sS's7_featurecomp'
p751
S'feature378'
p752
sS's7_featurecur'
p753
S'feature379'
p754
sS's7_featurefirst'
p755
S'feature380'
p756
sS'l1_feature//printf("%d %d\\n",ii-xc,jj-yc);'
p757
S'feature381'
p758
sS's7tfidf_featuresolve1'
p759
S'feature382'
p760
sS'l6_featurecppKeywordsbitor'
p761
S'feature1960'
p762
sS's7_featurexc'
p763
S'feature384'
p764
sS's9_featurestruct rect'
p765
S'feature385'
p766
sS'l1_feature" fork"'
p767
S'feature1962'
p768
sS's7_featurepred'
p769
S'feature1583'
p770
sS'l1_feature":\\n"'
p771
S'feature388'
p772
sS'l1_featurearr'
p773
S'feature389'
p774
sS"l1_feature'x'"
p775
S'feature390'
p776
sS'lay3feature'
p777
S'feature391'
p778
sS's7tfidf_featuretime'
p779
S'feature393'
p780
sS'l6_featurecppKeywordsunsigned'
p781
S'feature394'
p782
sS'BigramCursorKind.VAR_DECLCursorKind.BINARY_OPERATORb1BLANK'
p783
S'feature395'
p784
sS"l1_feature'n'"
p785
S'feature396'
p786
sS'l1_featuredfs'
p787
S'feature397'
p788
sS'l1_featuretest_case'
p789
S'feature398'
p790
sS'BigramCursorKind.DECL_STMTCursorKind.VAR_DECLBLANKhave'
p791
S'feature399'
p792
sS'NodeTypeAvgDepCursorKind.FUNCTION_DECL'
p793
S'feature400'
p794
sS's9_featurelove'
p795
S'feature401'
p796
sS'BigramCursorKind.COMPOUND_ASSIGNMENT_OPERATORCursorKind.DECL_REF_EXPRBLANKpush'
p797
S'feature402'
p798
sS'l1_featurefirstpos'
p799
S'feature403'
p800
sS'l1_featureadd_r'
p801
S'feature404'
p802
sS'BigramCursorKind.BINARY_OPERATORCursorKind.UNEXPOSED_EXPRBLANKBLANK'
p803
S'feature406'
p804
sS'l1_featureadd_c'
p805
S'feature407'
p806
sS'BigramCursorKind.ARRAY_SUBSCRIPT_EXPRCursorKind.UNEXPOSED_EXPRBLANKaa'
p807
S'feature408'
p808
sS'BigramCursorKind.BINARY_OPERATORCursorKind.DECL_REF_EXPRBLANKmax_w'
p809
S'feature409'
p810
sS's4_featureCursorKind.CXX_METHOD'
p811
S'feature410'
p812
sS'BigramCursorKind.ARRAY_SUBSCRIPT_EXPRCursorKind.UNEXPOSED_EXPRBLANKsz'
p813
S'feature411'
p814
sS'l6_featurecppKeywordstry'
p815
S'feature412'
p816
sS'BigramCursorKind.VAR_DECLCursorKind.DECL_REF_EXPRmxmaxn'
p817
S'feature413'
p818
sS'l1_featurestars'
p819
S'feature414'
p820
sS'l6_featurecppKeywordsand'
p821
S'feature1969'
p822
sS'BigramCursorKind.BINARY_OPERATORCursorKind.DECL_REF_EXPRBLANKmax_j'
p823
S'feature416'
p824
sS's7_featureminval'
p825
S'feature417'
p826
sS'l1_feature" ring"'
p827
S'feature418'
p828
sS'BigramCursorKind.VAR_DECLCursorKind.UNEXPOSED_EXPRilo'
p829
S'feature419'
p830
sS'BigramCursorKind.VAR_DECLCursorKind.BINARY_OPERATORdstBLANK'
p831
S'feature2138'
p832
sS'l8feature'
p833
S'feature421'
p834
sS's7_featurestd'
p835
S'feature422'
p836
sS'BigramCursorKind.VAR_DECLCursorKind.INTEGER_LITERALdxBLANK'
p837
S'feature423'
p838
sS'l1_feature"Ulaz.txt"'
p839
S'feature424'
p840
sS's9_featuremove'
p841
S'feature425'
p842
sS's7_featurestr'
p843
S'feature426'
p844
sS'NodeTypeAvgDepCursorKind.BREAK_STMT'
p845
S'feature427'
p846
sS's7_featurenumlen'
p847
S'feature428'
p848
sS'l1_feature" none\\n"'
p849
S'feature429'
p850
sS'l1_featuresstream'
p851
S'feature430'
p852
sS's3_fatureCursorKind.IF_STMT'
p853
S'feature431'
p854
sS'l6_featurecppKeywordsexport'
p855
S'feature432'
p856
sS's9_featuresurvive'
p857
S'feature433'
p858
sS'BigramCursorKind.WHILE_STMTCursorKind.BINARY_OPERATORBLANKBLANK'
p859
S'feature434'
p860
sS'l1_featureswap'
p861
S'feature435'
p862
sS'l1_featuresz'
p863
S'feature1560'
p864
sS'l1_feature" NO\\n"'
p865
S'feature436'
p866
sS's9_featuremaxval'
p867
S'feature437'
p868
sS'l1_featurejj'
p869
S'feature438'
p870
sS'l1_feature"Izlaz.txt"'
p871
S'feature439'
p872
sS's9_featurefind_set2'
p873
S'feature440'
p874
sS's7tfidf_featuretc'
p875
S'feature441'
p876
sS'l1_featureind'
p877
S'feature443'
p878
sS'l1_featurering'
p879
S'feature1592'
p880
sS's7tfidf_featurett'
p881
S'feature445'
p882
sS's7tfidf_featuredstr'
p883
S'feature446'
p884
sS's7tfidf_featuretp'
p885
S'feature447'
p886
sS'l1_featureint'
p887
S'feature448'
p888
sS'l1_featureinv'
p889
S'feature449'
p890
sS'l1_featuremax_int'
p891
S'feature450'
p892
sS's9_featurecsize'
p893
S'feature2252'
p894
sS'BigramCursorKind.DECL_STMTCursorKind.VAR_DECLBLANKradius'
p895
S'feature452'
p896
sS'BigramCursorKind.FUNCTION_DECLCursorKind.PARM_DECLnumlenx'
p897
S'feature453'
p898
sS'l1_featurereturn'
p899
S'feature1593'
p900
sS"l1_feature'0'"
p901
S'feature456'
p902
sS'l6_featurecppKeywordsbitand'
p903
S'feature457'
p904
sS'l6_featurecppKeywordsoperator'
p905
S'feature843'
p906
sS'l1_featureoperator'
p907
S'feature459'
p908
sS's7_featurevalid'
p909
S'feature460'
p910
sS'l4feature'
p911
S'feature1977'
p912
sS's7tfidf_featuret1'
p913
S'feature462'
p914
sS'BigramCursorKind.FUNCTION_DECLCursorKind.COMPOUND_STMTsolve_pBLANK'
p915
S'feature463'
p916
sS's7tfidf_featuret2'
p917
S'feature464'
p918
sS'NodeTypeAvgDepCursorKind.FLOATING_LITERAL'
p919
S'feature465'
p920
sS's7tfidf_featuresol'
p921
S'feature466'
p922
sS'l1_feature"A-small-attempt1.in"'
p923
S'feature467'
p924
sS'BigramCursorKind.BINARY_OPERATORCursorKind.UNEXPOSED_EXPRBLANKstart_x'
p925
S'feature468'
p926
sS'l6_featurecppKeywordsvirtual'
p927
S'feature469'
p928
sS'l1_feature//printf("[%d,%d]\\n",ls[i].first,ls[i].second);'
p929
S'feature470'
p930
sS'l6_featurecppKeywordsstruct'
p931
S'feature471'
p932
sS's9_featureptr'
p933
S'feature472'
p934
sS'l1_featurexx'
p935
S'feature473'
p936
sS'BigramCursorKind.BINARY_OPERATORCursorKind.DECL_REF_EXPRBLANKstart_x'
p937
S'feature474'
p938
sS's4_featureCursorKind.FOR_STMT'
p939
S'feature475'
p940
sS'BigramCursorKind.VAR_DECLCursorKind.INIT_LIST_EXPRtpBLANK'
p941
S'feature476'
p942
sS'NodeTypeAvgDepCursorKind.UNEXPOSED_EXPR'
p943
S'feature477'
p944
sS'l1_featurexc'
p945
S'feature478'
p946
sS's7tfidf_featureans'
p947
S'feature479'
p948
sS'BigramCursorKind.UNARY_OPERATORCursorKind.UNEXPOSED_EXPRBLANKc'
p949
S'feature480'
p950
sS'BigramCursorKind.BINARY_OPERATORCursorKind.UNEXPOSED_EXPRBLANKtest'
p951
S'feature481'
p952
sS'l1_feature"Ulaz"'
p953
S'feature482'
p954
sS'l6_featurecppKeywordscompl'
p955
S'feature483'
p956
sS'BigramCursorKind.UNARY_OPERATORCursorKind.UNEXPOSED_EXPRBLANKo'
p957
S'feature484'
p958
sS'l6_featurecppKeywordsxor_eq'
p959
S'feature485'
p960
sS'BigramCursorKind.UNARY_OPERATORCursorKind.UNEXPOSED_EXPRBLANKw'
p961
S'feature487'
p962
sS'l1_featureempty'
p963
S'feature488'
p964
sS'BigramCursorKind.VAR_DECLCursorKind.UNARY_OPERATORindBLANK'
p965
S'feature490'
p966
sS'l1_feature" YES\\n"'
p967
S'feature491'
p968
sS'BigramCursorKind.BINARY_OPERATORCursorKind.UNEXPOSED_EXPRBLANKstate'
p969
S'feature492'
p970
sS'BigramCursorKind.VAR_DECLCursorKind.INIT_LIST_EXPRstepsBLANK'
p971
S'feature493'
p972
sS'BigramCursorKind.VAR_DECLCursorKind.DECL_REF_EXPRsummaxn'
p973
S'feature494'
p974
sS'BigramCursorKind.RETURN_STMTCursorKind.UNEXPOSED_EXPRBLANKret'
p975
S'feature495'
p976
sS'l1_feature"%d"'
p977
S'feature496'
p978
sS's9_featurett'
p979
S'feature497'
p980
sS's9_featuretp'
p981
S'feature498'
p982
sS'BigramCursorKind.BINARY_OPERATORCursorKind.DECL_REF_EXPRBLANKnew_y'
p983
S'feature499'
p984
sS'BigramCursorKind.BINARY_OPERATORCursorKind.DECL_REF_EXPRBLANKnew_x'
p985
S'feature500'
p986
sS'BigramCursorKind.COMPOUND_ASSIGNMENT_OPERATORCursorKind.UNEXPOSED_EXPRBLANKc'
p987
S'feature501'
p988
sS's9_featuretc'
p989
S'feature502'
p990
sS'BigramCursorKind.VAR_DECLCursorKind.INTEGER_LITERALaBLANK'
p991
S'feature503'
p992
sS'l1_featuresqrt'
p993
S'feature504'
p994
sS'l6_featurecppKeywordsenum'
p995
S'feature505'
p996
sS'BigramCursorKind.CALL_EXPRCursorKind.UNEXPOSED_EXPRsolve_psolve_p'
p997
S'feature506'
p998
sS's7_featurefind_set'
p999
S'feature507'
p1000
sS'l1_featureinside'
p1001
S'feature509'
p1002
sS'l6_featurecppKeywordstypeid'
p1003
S'feature510'
p1004
sS'l1_feature"input.txt"'
p1005
S'feature511'
p1006
sS'l6_featurecppKeywordsnot_eq'
p1007
S'feature512'
p1008
sS's9_featuret2'
p1009
S'feature513'
p1010
sS's9_featuret1'
p1011
S'feature486'
p1012
sS'BigramCursorKind.VAR_DECLCursorKind.BINARY_OPERATORmaxvBLANK'
p1013
S'feature515'
p1014
sS's9_featureadd'
p1015
S'feature516'
p1016
sS'BigramCursorKind.UNARY_OPERATORCursorKind.DECL_REF_EXPRBLANKnum'
p1017
S'feature517'
p1018
sS's9_featuretrain_set'
p1019
S'feature2119'
p1020
sS's9_featureadj'
p1021
S'feature518'
p1022
sS'l1_featurenxt'
p1023
S'feature519'
p1024
sS's3_fatureCursorKind.FLOATING_LITERAL'
p1025
S'feature520'
p1026
sS'l1_feature"Case #%d:\\n"'
p1027
S'feature521'
p1028
sS'l6_featurecppKeywordsbreak'
p1029
S'feature522'
p1030
sS'BigramCursorKind.UNEXPOSED_EXPRCursorKind.MEMBER_REF_EXPRww'
p1031
S'feature523'
p1032
sS'l1_featuretoleft'
p1033
S'feature524'
p1034
sS'l6_featurecppKeywordstemplate'
p1035
S'feature1941'
p1036
sS's7tfidf_featurediff'
p1037
S'feature525'
p1038
sS's7tfidf_featurehi'
p1039
S'feature526'
p1040
sS'l1_featurelesss'
p1041
S'feature527'
p1042
sS's9_featuretrain_res'
p1043
S'feature528'
p1044
sS'BigramCursorKind.BINARY_OPERATORCursorKind.DECL_REF_EXPRBLANKjj'
p1045
S'feature529'
p1046
sS'l6_featurecppKeywordsconstexpr'
p1047
S'feature530'
p1048
sS'BigramCursorKind.BINARY_OPERATORCursorKind.DECL_REF_EXPRBLANKstate'
p1049
S'feature531'
p1050
sS'BigramCursorKind.UNEXPOSED_EXPRCursorKind.UNEXPOSED_EXPRBB'
p1051
S'feature532'
p1052
sS's7_featuresum'
p1053
S'feature533'
p1054
sS's7_featuresup'
p1055
S'feature534'
p1056
sS's9_featureargc'
p1057
S'feature1336'
p1058
sS"l1_feature'm'"
p1059
S'feature535'
p1060
sS'l1_feature//at least p point if (p-2)*2 + p >= res for surprising: 3p-4>=res'
p1061
S'feature536'
p1062
sS'BigramCursorKind.FUNCTION_DECLCursorKind.PARM_DECLcheckstr'
p1063
S'feature537'
p1064
sS'l1_feature"%.10lf "'
p1065
S'feature538'
p1066
sS'l1_featureerase'
p1067
S'feature539'
p1068
sS'BigramCursorKind.VAR_DECLCursorKind.FLOATING_LITERALsolBLANK'
p1069
S'feature540'
p1070
sS'l1_feature"%d\\n"'
p1071
S'feature542'
p1072
sS'l1_feature"Izlaz_gcj_b.txt"'
p1073
S'feature671'
p1074
sS's7_featuremaxh'
p1075
S'feature544'
p1076
sS's7_featuremaxv'
p1077
S'feature545'
p1078
sS'l1_featurecap'
p1079
S'feature546'
p1080
sS'l1_featureos'
p1081
S'feature2195'
p1082
sS'BigramCursorKind.IF_STMTCursorKind.UNEXPOSED_EXPRBLANKpossible'
p1083
S'feature547'
p1084
sS'l1_featuretest'
p1085
S'feature1614'
p1086
sS'l10feature'
p1087
S'feature549'
p1088
sS'l6_featurecppKeywordscatch'
p1089
S'feature1991'
p1090
sS'BigramCursorKind.VAR_DECLCursorKind.DECL_REF_EXPRdmaxn'
p1091
S'feature1615'
p1092
sS'BigramCursorKind.COMPOUND_ASSIGNMENT_OPERATORCursorKind.DECL_REF_EXPRBLANKsol'
p1093
S'feature730'
p1094
sS'l1_feature""'
p1095
S'feature552'
p1096
sS'l6_featurecppKeywordsfor'
p1097
S'feature741'
p1098
sS'l1_featureanswered'
p1099
S'feature1616'
p1100
sS'BigramCursorKind.BINARY_OPERATORCursorKind.UNEXPOSED_EXPRBLANKcx'
p1101
S'feature554'
p1102
sS'BigramCursorKind.BINARY_OPERATORCursorKind.UNEXPOSED_EXPRBLANKcy'
p1103
S'feature555'
p1104
sS'l6_featurecppKeywordsinline'
p1105
S'feature762'
p1106
sS's7_featurecx'
p1107
S'feature557'
p1108
sS's7_featurecy'
p1109
S'feature558'
p1110
sS's7tfidf_featuresets'
p1111
S'feature559'
p1112
sS'l1_feature"%.1lf %.1lf "'
p1113
S'feature560'
p1114
sS's7_featurecs'
p1115
S'feature561'
p1116
sS'BigramCursorKind.DECL_STMTCursorKind.VAR_DECLBLANKinside'
p1117
S'feature562'
p1118
sS'class'
p1119
g1119
sS'l1_featureexit9'
p1120
S'feature564'
p1121
sS'l1_featureexit8'
p1122
S'feature565'
p1123
sS'BigramCursorKind.VAR_DECLCursorKind.INTEGER_LITERALmlBLANK'
p1124
S'feature566'
p1125
sS'l1_feature"no chanse!"'
p1126
S'feature819'
p1127
sS'BigramCursorKind.VAR_DECLCursorKind.INTEGER_LITERALttBLANK'
p1128
S'feature828'
p1129
sS'l1_featureexit2'
p1130
S'feature569'
p1131
sS'l1_featureexit5'
p1132
S'feature570'
p1133
sS'l1_featureexit4'
p1134
S'feature571'
p1135
sS'l1_featureexit7'
p1136
S'feature572'
p1137
sS'l1_featureexit6'
p1138
S'feature573'
p1139
sS'BigramCursorKind.CALL_EXPRCursorKind.UNEXPOSED_EXPRsolvefirst'
p1140
S'feature1622'
p1141
sS's7_featurepack'
p1142
S'feature846'
p1143
sS'NodeTypeAvgDepCursorKind.STRUCT_DECL'
p1144
S'feature850'
p1145
sS'BigramCursorKind.DECL_STMTCursorKind.VAR_DECLBLANKcap'
p1146
S'feature578'
p1147
sS'l1_feature"B-small-attempt0.in"'
p1148
S'feature579'
p1149
sS'BigramCursorKind.FUNCTION_DECLCursorKind.COMPOUND_STMTmake_setBLANK'
p1150
S'feature580'
p1151
sS'BigramCursorKind.FUNCTION_DECLCursorKind.PARM_DECLsolvet'
p1152
S'feature581'
p1153
sS's7_featurec1'
p1154
S'feature582'
p1155
sS'l1_featuregetans'
p1156
S'feature885'
p1157
sS'l1_featurepush_back'
p1158
S'feature584'
p1159
sS's7_featureadj'
p1160
S'feature585'
p1161
sS'BigramCursorKind.FUNCTION_DECLCursorKind.COMPOUND_STMTunpackBLANK'
p1162
S'feature586'
p1163
sS's4_featureCursorKind.CONSTRUCTOR'
p1164
S'feature587'
p1165
sS'l1_featurewaiting'
p1166
S'feature1029'
p1167
sS'BigramCursorKind.INIT_LIST_EXPRCursorKind.INTEGER_LITERALBLANKBLANK'
p1168
S'feature589'
p1169
sS's7_featuremn'
p1170
S'feature590'
p1171
sS's7_featureml'
p1172
S'feature591'
p1173
sS's7_featureadd'
p1174
S'feature592'
p1175
sS'l1_featuresituation'
p1176
S'feature593'
p1177
sS's9_featuretoposort'
p1178
S'feature594'
p1179
sS'BigramCursorKind.BINARY_OPERATORCursorKind.DECL_REF_EXPRBLANKxc'
p1180
S'feature595'
p1181
sS'BigramCursorKind.IF_STMTCursorKind.BREAK_STMTBLANKBLANK'
p1182
S'feature596'
p1183
sS's7_featuremap'
p1184
S'feature597'
p1185
sS's7_featuremx'
p1186
S'feature598'
p1187
sS'BigramCursorKind.DECL_STMTCursorKind.VAR_DECLBLANKkp_w'
p1188
S'feature599'
p1189
sS's7tfidf_featurelove'
p1190
S'feature865'
p1191
sS'l1_featuresort'
p1192
S'feature601'
p1193
sS'BigramCursorKind.CALL_EXPRCursorKind.UNEXPOSED_EXPRfind_set2find_set2'
p1194
S'feature602'
p1195
sS'l6_featurecppKeywordsor_eq'
p1196
S'feature603'
p1197
sS's7tfidf_featuredst'
p1198
S'feature604'
p1199
sS'NodeTypeAvgDepCursorKind.COMPOUND_STMT'
p1200
S'feature605'
p1201
sS'l1_feature>='
p1202
S'feature606'
p1203
sS'l1_feature>>'
p1204
S'feature607'
p1205
sS's9_featuresolve_p'
p1206
S'feature608'
p1207
sS's9_featurecmp'
p1208
S'feature609'
p1209
sS'l1_featurekp'
p1210
S'feature610'
p1211
sS's7tfidf_featuredx'
p1212
S'feature1081'
p1213
sS'BigramCursorKind.VAR_DECLCursorKind.CALL_EXPRbreachable'
p1214
S'feature612'
p1215
sS's9_featuremap'
p1216
S'feature613'
p1217
sS'l1_featureconst'
p1218
S'feature614'
p1219
sS'l1_featurealgorithm'
p1220
S'feature615'
p1221
sS'BigramCursorKind.DECL_STMTCursorKind.VAR_DECLBLANKtest'
p1222
S'feature616'
p1223
sS'BigramCursorKind.VAR_DECLCursorKind.INIT_LIST_EXPRdxBLANK'
p1224
S'feature617'
p1225
sS'l1_feature"Bad magician!"'
p1226
S'feature618'
p1227
sS's7tfidf_featurebuf'
p1228
S'feature619'
p1229
sS'BigramCursorKind.CALL_EXPRCursorKind.UNEXPOSED_EXPRnumlennumlen'
p1230
S'feature1140'
p1231
sS'BigramCursorKind.BINARY_OPERATORCursorKind.UNEXPOSED_EXPRBLANKlove'
p1232
S'feature621'
p1233
sS'l6_featurecppKeywordsnoexcept'
p1234
S'feature622'
p1235
sS'BigramCursorKind.FUNCTION_DECLCursorKind.COMPOUND_STMTfind_set2BLANK'
p1236
S'feature623'
p1237
sS'l1_featureabs'
p1238
S'feature624'
p1239
sS'BigramCursorKind.CALL_EXPRCursorKind.DECL_REF_EXPRchecky'
p1240
S'feature625'
p1241
sS'l1_feature"Case #%d: GOOD\\n"'
p1242
S'feature626'
p1243
sS'BigramCursorKind.UNARY_OPERATORCursorKind.DECL_REF_EXPRBLANKs'
p1244
S'feature2201'
p1245
sS'l1_featuremath'
p1246
S'feature627'
p1247
sS'l1_featuretx2'
p1248
S'feature611'
p1249
sS'BigramCursorKind.VAR_DECLCursorKind.BINARY_OPERATORfBLANK'
p1250
S'feature628'
p1251
sS'l1_featurechainsize'
p1252
S'feature629'
p1253
sS'l1_featureREPi'
p1254
S'feature630'
p1255
sS'BigramCursorKind.FUNCTION_DECLCursorKind.PARM_DECLcanMovetime'
p1256
S'feature631'
p1257
sS'BigramCursorKind.ARRAY_SUBSCRIPT_EXPRCursorKind.UNEXPOSED_EXPRBLANKtoposort'
p1258
S'feature632'
p1259
sS'l6_featurecppKeywordsauto'
p1260
S'feature633'
p1261
sS's9_featuresituation'
p1262
S'feature634'
p1263
sS'l1_featuresrand'
p1264
S'feature635'
p1265
sS's7tfidf_featureii'
p1266
S'feature636'
p1267
sS's7tfidf_featurein'
p1268
S'feature637'
p1269
sS'l1_featureedg'
p1270
S'feature1632'
p1271
sS's7_featurepossible'
p1272
S'feature638'
p1273
sS'BigramCursorKind.VAR_DECLCursorKind.INTEGER_LITERALgridBLANK'
p1274
S'feature639'
p1275
sS'BigramCursorKind.FUNCTION_DECLCursorKind.COMPOUND_STMTfind_setBLANK'
p1276
S'feature1633'
p1277
sS's9_featuredist2'
p1278
S'feature2105'
p1279
sS'BigramCursorKind.VAR_DECLCursorKind.BINARY_OPERATORkp_wBLANK'
p1280
S'feature641'
p1281
sS's3_fatureCursorKind.INTEGER_LITERAL'
p1282
S'feature642'
p1283
sS'l1_featureyy'
p1284
S'feature643'
p1285
sS's7tfidf_featurestate'
p1286
S'feature644'
p1287
sS'BigramCursorKind.DECL_STMTCursorKind.VAR_DECLBLANKin'
p1288
S'feature645'
p1289
sS's9_featureargv'
p1290
S'feature646'
p1291
sS's3_fatureCursorKind.FUNCTION_DECL'
p1292
S'feature647'
p1293
sS's4_featureCursorKind.FIELD_DECL'
p1294
S'feature648'
p1295
sS'l1_featurestruct'
p1296
S'feature649'
p1297
sS'l1_featureyc'
p1298
S'feature415'
p1299
sS's9_featurevisited'
p1300
S'feature651'
p1301
sS'l1_feature0.0'
p1302
S'feature2141'
p1303
sS'BigramCursorKind.FUNCTION_DECLCursorKind.COMPOUND_STMTgcdBLANK'
p1304
S'feature115'
p1305
sS's7tfidf_featuremid'
p1306
S'feature653'
p1307
sS'l1_featuremax_j'
p1308
S'feature654'
p1309
sS'BigramCursorKind.ARRAY_SUBSCRIPT_EXPRCursorKind.UNEXPOSED_EXPRBLANKc1'
p1310
S'feature655'
p1311
sS'BigramCursorKind.COMPOUND_ASSIGNMENT_OPERATORCursorKind.DECL_REF_EXPRBLANKtmp'
p1312
S'feature113'
p1313
sS'BigramCursorKind.FUNCTION_DECLCursorKind.COMPOUND_STMTpackBLANK'
p1314
S'feature657'
p1315
sS'l1_featuremax_w'
p1316
S'feature658'
p1317
sS'BigramCursorKind.ARRAY_SUBSCRIPT_EXPRCursorKind.UNEXPOSED_EXPRBLANKsoly'
p1318
S'feature659'
p1319
sS'BigramCursorKind.ARRAY_SUBSCRIPT_EXPRCursorKind.UNEXPOSED_EXPRBLANKsolx'
p1320
S'feature1019'
p1321
sS'l1_feature2000000'
p1322
S'feature661'
p1323
sS's9_featurety2'
p1324
S'feature662'
p1325
sS's9_featurety1'
p1326
S'feature663'
p1327
sS's7tfidf_featurecmp'
p1328
S'feature1638'
p1329
sS's7tfidf_featureradius'
p1330
S'feature665'
p1331
sS's7_featurerotate'
p1332
S'feature666'
p1333
sS'l1_featureall'
p1334
S'feature667'
p1335
sS'l1_featuremove'
p1336
S'feature668'
p1337
sS'l1_featurenc'
p1338
S'feature2013'
p1339
sS's7_featuremaxn'
p1340
S'feature543'
p1341
sS'l1_feature// |    |'
p1342
S'feature672'
p1343
sS's3_fatureCursorKind.PAREN_EXPR'
p1344
S'feature1639'
p1345
sS'BigramCursorKind.DECL_STMTCursorKind.VAR_DECLBLANKppow'
p1346
S'feature674'
p1347
sS'BigramCursorKind.ARRAY_SUBSCRIPT_EXPRCursorKind.UNEXPOSED_EXPRBLANKcx'
p1348
S'feature675'
p1349
sS'BigramCursorKind.ARRAY_SUBSCRIPT_EXPRCursorKind.UNEXPOSED_EXPRBLANKcy'
p1350
S'feature676'
p1351
sS's7tfidf_featurecur'
p1352
S'feature442'
p1353
sS'BigramCursorKind.CALL_EXPRCursorKind.UNEXPOSED_EXPRsurvivemid'
p1354
S'feature678'
p1355
sS's7_featurelast'
p1356
S'feature679'
p1357
sS's7_featureused'
p1358
S'feature680'
p1359
sS'l1_featuretime'
p1360
S'feature681'
p1361
sS'BigramCursorKind.BINARY_OPERATORCursorKind.UNEXPOSED_EXPRBLANKb1'
p1362
S'feature682'
p1363
sS'l1_feature"YES\\n"'
p1364
S'feature683'
p1365
sS'BigramCursorKind.BINARY_OPERATORCursorKind.UNEXPOSED_EXPRBLANKb2'
p1366
S'feature684'
p1367
sS's9_featuresolve'
p1368
S'feature685'
p1369
sS'BigramCursorKind.BINARY_OPERATORCursorKind.UNEXPOSED_EXPRBLANKtoleft'
p1370
S'feature686'
p1371
sS's7_featurecurr'
p1372
S'feature687'
p1373
sS'BigramCursorKind.FUNCTION_DECLCursorKind.PARM_DECLreachablewaiting'
p1374
S'feature688'
p1375
sS'BigramCursorKind.COMPOUND_STMTCursorKind.CONTINUE_STMTBLANKBLANK'
p1376
S'feature689'
p1377
sS'BigramCursorKind.CONSTRUCTORCursorKind.COMPOUND_STMTrectBLANK'
p1378
S'feature690'
p1379
sS'BigramCursorKind.BINARY_OPERATORCursorKind.UNEXPOSED_EXPRBLANKpw'
p1380
S'feature691'
p1381
sS's7_featurell'
p1382
S'feature692'
p1383
sS's7_featurelo'
p1384
S'feature693'
p1385
sS'BigramCursorKind.BINARY_OPERATORCursorKind.DECL_REF_EXPRBLANKyc'
p1386
S'feature695'
p1387
sS'l1_feature"Too Bad"'
p1388
S'feature696'
p1389
sS'BigramCursorKind.VAR_DECLCursorKind.INTEGER_LITERALselBLANK'
p1390
S'feature697'
p1391
sS's7_featureadd_c'
p1392
S'feature698'
p1393
sS'l1_featurevoid'
p1394
S'feature699'
p1395
sS'BigramCursorKind.FUNCTION_DECLCursorKind.PARM_DECLrotatestart_x'
p1396
S'feature700'
p1397
sS's7_featureadd_r'
p1398
S'feature701'
p1399
sS'l1_feature16'
p1400
S'feature702'
p1401
sS'l1_feature"r"'
p1402
S'feature703'
p1403
sS's9_featureaa'
p1404
S'feature704'
p1405
sS'l1_feature// starting time'
p1406
S'feature129'
p1407
sS'BigramCursorKind.FUNCTION_DECLCursorKind.PARM_DECLmovex'
p1408
S'feature706'
p1409
sS'BigramCursorKind.FUNCTION_DECLCursorKind.PARM_DECLmovey'
p1410
S'feature707'
p1411
sS'BigramCursorKind.BINARY_OPERATORCursorKind.UNEXPOSED_EXPRBLANKp3'
p1412
S'feature708'
p1413
sS'BigramCursorKind.BINARY_OPERATORCursorKind.UNEXPOSED_EXPRBLANKp2'
p1414
S'feature709'
p1415
sS'BigramCursorKind.BINARY_OPERATORCursorKind.UNEXPOSED_EXPRBLANKp1'
p1416
S'feature710'
p1417
sS's7_featuretime'
p1418
S'feature711'
p1419
sS'l6_featurecppKeywordsdecltype'
p1420
S'feature712'
p1421
sS's7tfidf_featuremax_int'
p1422
S'feature713'
p1423
sS's7tfidf_featurecurr'
p1424
S'feature714'
p1425
sS'BigramCursorKind.UNEXPOSED_EXPRCursorKind.FLOATING_LITERALBLANKBLANK'
p1426
S'feature715'
p1427
sS'l1_featurelength'
p1428
S'feature716'
p1429
sS'BigramCursorKind.DECL_STMTCursorKind.VAR_DECLBLANKptr'
p1430
S'feature717'
p1431
sS'BigramCursorKind.VAR_DECLCursorKind.INTEGER_LITERALdBLANK'
p1432
S'feature718'
p1433
sS's7_featureb2'
p1434
S'feature719'
p1435
sS's7_featureb1'
p1436
S'feature720'
p1437
sS'l1_featureblabla'
p1438
S'feature721'
p1439
sS'BigramCursorKind.VAR_DECLCursorKind.INTEGER_LITERALiBLANK'
p1440
S'feature1016'
p1441
sS's7_featurehave'
p1442
S'feature723'
p1443
sS'BigramCursorKind.BINARY_OPERATORCursorKind.INTEGER_LITERALBLANKBLANK'
p1444
S'feature724'
p1445
sS'BigramCursorKind.FUNCTION_DECLCursorKind.PARM_DECLsolve_pfirst'
p1446
S'feature725'
p1447
sS's4_featureCursorKind.PAREN_EXPR'
p1448
S'feature726'
p1449
sS'BigramCursorKind.CXX_METHODCursorKind.PARM_DECLoperator<r'
p1450
S'feature727'
p1451
sS's7tfidf_featurecount'
p1452
S'feature728'
p1453
sS'BigramCursorKind.DECL_STMTCursorKind.VAR_DECLBLANKstars'
p1454
S'feature729'
p1455
sS'BigramCursorKind.VAR_DECLCursorKind.DECL_REF_EXPRtmpmaxn'
p1456
S'feature551'
p1457
sS'l1_featuremake_pair'
p1458
S'feature731'
p1459
sS's9_featureminval'
p1460
S'feature733'
p1461
sS'l1_featureeps'
p1462
S'feature734'
p1463
sS'BigramCursorKind.VAR_DECLCursorKind.BINARY_OPERATORiBLANK'
p1464
S'feature735'
p1465
sS's4_featureCursorKind.PARM_DECL'
p1466
S'feature736'
p1467
sS's3_fatureCursorKind.WHILE_STMT'
p1468
S'feature737'
p1469
sS's3_fatureCursorKind.CXX_BOOL_LITERAL_EXPR'
p1470
S'feature738'
p1471
sS'l1_featureiomanip'
p1472
S'feature739'
p1473
sS'l1_feature/*\r\n   for(int i=0; i<r; i++){\r\n      for(int j=0; j<c; j++) printf("%d",ok[i][j]);\r\n\t  puts("");\r\n   }\r\n   puts("");*/'
p1474
S'feature740'
p1475
sS'BigramCursorKind.BINARY_OPERATORCursorKind.UNEXPOSED_EXPRBLANKcs'
p1476
S'feature553'
p1477
sS's3_fatureCursorKind.DO_STMT'
p1478
S'feature742'
p1479
sS'l9feature'
p1480
S'feature743'
p1481
sS'l1_featureINT_MAX'
p1482
S'feature744'
p1483
sS's4_featureCursorKind.CXX_THROW_EXPR'
p1484
S'feature745'
p1485
sS'l1_featureptr'
p1486
S'feature746'
p1487
sS'BigramCursorKind.DECL_STMTCursorKind.VAR_DECLBLANKhi'
p1488
S'feature747'
p1489
sS'l6_featurecppKeywordsswitch'
p1490
S'feature748'
p1491
sS'l1_featureifdef'
p1492
S'feature750'
p1493
sS'l1_featurevd'
p1494
S'feature751'
p1495
sS'BigramCursorKind.FUNCTION_DECLCursorKind.COMPOUND_STMTnumlenBLANK'
p1496
S'feature752'
p1497
sS'l1_featurelower_bound'
p1498
S'feature753'
p1499
sS'l1_featureh2'
p1500
S'feature754'
p1501
sS'l1_featureh1'
p1502
S'feature755'
p1503
sS's7tfidf_featurexc'
p1504
S'feature756'
p1505
sS'BigramCursorKind.DO_STMTCursorKind.COMPOUND_STMTBLANKBLANK'
p1506
S'feature1168'
p1507
sS's9_featuredist1'
p1508
S'feature758'
p1509
sS'BigramCursorKind.UNARY_OPERATORCursorKind.DECL_REF_EXPRBLANKbuf'
p1510
S'feature759'
p1511
sS'BigramCursorKind.BINARY_OPERATORCursorKind.UNEXPOSED_EXPRBLANKdiff'
p1512
S'feature760'
p1513
sS'BigramCursorKind.FUNCTION_DECLCursorKind.PARM_DECLsolve_plast'
p1514
S'feature1805'
p1515
sS'BigramCursorKind.CALL_EXPRCursorKind.UNEXPOSED_EXPRrotaterotate'
p1516
S'feature556'
p1517
sS's9_featurecheck'
p1518
S'feature763'
p1519
sS'l1_featurehi'
p1520
S'feature764'
p1521
sS'BigramCursorKind.CALL_EXPRCursorKind.BINARY_OPERATORgcdBLANK'
p1522
S'feature765'
p1523
sS'l1_featureprocess'
p1524
S'feature766'
p1525
sS'l1_featurebool'
p1526
S'feature767'
p1527
sS'BigramCursorKind.ARRAY_SUBSCRIPT_EXPRCursorKind.INTEGER_LITERALBLANKBLANK'
p1528
S'feature768'
p1529
sS'BigramCursorKind.VAR_DECLCursorKind.INTEGER_LITERALptrBLANK'
p1530
S'feature769'
p1531
sS'BigramCursorKind.VAR_DECLCursorKind.UNEXPOSED_EXPRsf'
p1532
S'feature770'
p1533
sS'BigramCursorKind.BINARY_OPERATORCursorKind.UNEXPOSED_EXPRBLANKhave'
p1534
S'feature2035'
p1535
sS'l1_featureargv'
p1536
S'feature772'
p1537
sS"l1_feature'*'"
p1538
S'feature773'
p1539
sS'BigramCursorKind.DECL_STMTCursorKind.VAR_DECLBLANKcount'
p1540
S'feature774'
p1541
sS'l1_featureminval'
p1542
S'feature775'
p1543
sS'l1_feature"WA: %d %d %.10lf %.10lf\\n"'
p1544
S'feature776'
p1545
sS'l6_featurecppKeywordsalignas'
p1546
S'feature903'
p1547
sS'BigramCursorKind.DECL_STMTCursorKind.VAR_DECLBLANKtest_case'
p1548
S'feature778'
p1549
sS's7tfidf_featurectr'
p1550
S'feature779'
p1551
sS's7_featurestart_x'
p1552
S'feature2246'
p1553
sS'l1_feature"NOT POSSIBLE"'
p1554
S'feature780'
p1555
sS'l1_feature10000'
p1556
S'feature781'
p1557
sS'BigramCursorKind.VAR_DECLCursorKind.UNEXPOSED_EXPRtx2cx'
p1558
S'feature782'
p1559
sS'BigramCursorKind.WHILE_STMTCursorKind.NULL_STMTBLANKBLANK'
p1560
S'feature783'
p1561
sS's3_fatureCursorKind.FIELD_DECL'
p1562
S'feature784'
p1563
sS's7tfidf_featurearr'
p1564
S'feature94'
p1565
sS's9_featuretx1'
p1566
S'feature786'
p1567
sS's7_featuremaxval'
p1568
S'feature98'
p1569
sS'BigramCursorKind.VAR_DECLCursorKind.INTEGER_LITERALusedBLANK'
p1570
S'feature788'
p1571
sS'BigramCursorKind.DECL_STMTCursorKind.VAR_DECLBLANKmax_w'
p1572
S'feature789'
p1573
sS's4_featureCursorKind.RETURN_STMT'
p1574
S'feature790'
p1575
sS'NodeTypeAvgDepCursorKind.MEMBER_REF_EXPR'
p1576
S'feature791'
p1577
sS'l1_feature"A-small-attempt0.in"'
p1578
S'feature792'
p1579
sS'l6_featurecppKeywordsunion'
p1580
S'feature793'
p1581
sS's7tfidf_featurejj'
p1582
S'feature794'
p1583
sS'BigramCursorKind.DECL_STMTCursorKind.VAR_DECLBLANKmax_j'
p1584
S'feature795'
p1585
sS's9_featurenode'
p1586
S'feature796'
p1587
sS'BigramCursorKind.ARRAY_SUBSCRIPT_EXPRCursorKind.UNEXPOSED_EXPRBLANKlo'
p1588
S'feature797'
p1589
sS'l1_featuremain'
p1590
S'feature798'
p1591
sS'BigramCursorKind.DECL_STMTCursorKind.VAR_DECLBLANKused'
p1592
S'feature799'
p1593
sS'BigramCursorKind.BINARY_OPERATORCursorKind.DECL_REF_EXPRBLANKhi'
p1594
S'feature800'
p1595
sS'BigramCursorKind.BINARY_OPERATORCursorKind.UNEXPOSED_EXPRBLANKs2'
p1596
S'feature801'
p1597
sS'l1_featurekol'
p1598
S'feature802'
p1599
sS'BigramCursorKind.VAR_DECLCursorKind.CALL_EXPRanssolve'
p1600
S'feature803'
p1601
sS'BigramCursorKind.VAR_DECLCursorKind.UNEXPOSED_EXPRloBLANK'
p1602
S'feature804'
p1603
sS'l1_featurelast'
p1604
S'feature805'
p1605
sS'l1_featureinclude'
p1606
S'feature806'
p1607
sS'BigramCursorKind.IF_STMTCursorKind.CALL_EXPRBLANKmove'
p1608
S'feature807'
p1609
sS'l1_feature// place mines at the border'
p1610
S'feature808'
p1611
sS'BigramCursorKind.VAR_DECLCursorKind.DECL_REF_EXPRrmaxn'
p1612
S'feature809'
p1613
sS'BigramCursorKind.DECL_STMTCursorKind.VAR_DECLBLANKt2'
p1614
S'feature541'
p1615
sS'BigramCursorKind.DECL_STMTCursorKind.VAR_DECLBLANKt1'
p1616
S'feature811'
p1617
sS'l1_feature110'
p1618
S'feature812'
p1619
sS'BigramCursorKind.BINARY_OPERATORCursorKind.DECL_REF_EXPRBLANKvalid'
p1620
S'feature813'
p1621
sS'l6_featurecppKeywordsfalse'
p1622
S'feature814'
p1623
sS'BigramCursorKind.BINARY_OPERATORCursorKind.UNEXPOSED_EXPRBLANKwaterLevel'
p1624
S'feature815'
p1625
sS'l1_featurefind_set'
p1626
S'feature816'
p1627
sS's4_featureCursorKind.DECL_STMT'
p1628
S'feature359'
p1629
sS's7tfidf_featuresup'
p1630
S'feature818'
p1631
sS'l1_featureexit1'
p1632
S'feature567'
p1633
sS'l1_featurenew_y'
p1634
S'feature1259'
p1635
sS'l1_featuresolve'
p1636
S'feature821'
p1637
sS'l1_featurestring'
p1638
S'feature822'
p1639
sS's7tfidf_featurenew_y'
p1640
S'feature823'
p1641
sS's7tfidf_featurenew_x'
p1642
S'feature824'
p1643
sS'BigramCursorKind.BINARY_OPERATORCursorKind.UNEXPOSED_EXPRBLANKsz'
p1644
S'feature825'
p1645
sS'BigramCursorKind.BINARY_OPERATORCursorKind.UNEXPOSED_EXPRBLANKsx'
p1646
S'feature826'
p1647
sS'BigramCursorKind.ARRAY_SUBSCRIPT_EXPRCursorKind.UNEXPOSED_EXPRBLANKcsize'
p1648
S'feature827'
p1649
sS'l1_featureexit3'
p1650
S'feature568'
p1651
sS'BigramCursorKind.DECL_STMTCursorKind.VAR_DECLBLANKtt'
p1652
S'feature829'
p1653
sS'l1_feature//random_shuffle(a.begin(),a.end());'
p1654
S'feature830'
p1655
sS'BigramCursorKind.DECL_STMTCursorKind.VAR_DECLBLANKtp'
p1656
S'feature831'
p1657
sS'NodeTypeAvgDepCursorKind.UNARY_OPERATOR'
p1658
S'feature832'
p1659
sS'BigramCursorKind.UNEXPOSED_EXPRCursorKind.UNEXPOSED_EXPRrr'
p1660
S'feature833'
p1661
sS'BigramCursorKind.DECL_STMTCursorKind.VAR_DECLBLANKtc'
p1662
S'feature834'
p1663
sS's7_featuresel'
p1664
S'feature835'
p1665
sS'BigramCursorKind.PAREN_EXPRCursorKind.BINARY_OPERATORBLANKBLANK'
p1666
S'feature836'
p1667
sS'BigramCursorKind.FUNCTION_DECLCursorKind.PARM_DECLcheckn'
p1668
S'feature837'
p1669
sS'BigramCursorKind.RETURN_STMTCursorKind.UNEXPOSED_EXPRBLANKBLANK'
p1670
S'feature838'
p1671
sS'BigramCursorKind.UNARY_OPERATORCursorKind.UNEXPOSED_EXPRBLANKpossible'
p1672
S'feature839'
p1673
sS's7_featureaa'
p1674
S'feature840'
p1675
sS'BigramCursorKind.VAR_DECLCursorKind.UNEXPOSED_EXPRcyyc'
p1676
S'feature841'
p1677
sS'BigramCursorKind.FUNCTION_DECLCursorKind.PARM_DECLcheckx'
p1678
S'feature842'
p1679
sS'l1_featuregcd'
p1680
S'feature458'
p1681
sS'BigramCursorKind.CALL_EXPRCursorKind.UNEXPOSED_EXPRsurvivei'
p1682
S'feature844'
p1683
sS'BigramCursorKind.BINARY_OPERATORCursorKind.UNEXPOSED_EXPRBLANKml'
p1684
S'feature845'
p1685
sS'BigramCursorKind.UNEXPOSED_EXPRCursorKind.UNEXPOSED_EXPRsxsx'
p1686
S'feature575'
p1687
sS'BigramCursorKind.BINARY_OPERATORCursorKind.UNEXPOSED_EXPRBLANKsolve'
p1688
S'feature847'
p1689
sS's7tfidf_featuremax_j'
p1690
S'feature848'
p1691
sS'BigramCursorKind.VAR_DECLCursorKind.DECL_REF_EXPRlmaxn'
p1692
S'feature849'
p1693
sS's9_featuregetans'
p1694
S'feature577'
p1695
sS's7_features2'
p1696
S'feature851'
p1697
sS'l1_featurefork'
p1698
S'feature852'
p1699
sS'BigramCursorKind.FUNCTION_DECLCursorKind.COMPOUND_STMTcheckBLANK'
p1700
S'feature853'
p1701
sS's7_featuredp'
p1702
S'feature1668'
p1703
sS's7tfidf_featuremax_w'
p1704
S'feature855'
p1705
sS'BigramCursorKind.BINARY_OPERATORCursorKind.UNEXPOSED_EXPRBLANKtest_count'
p1706
S'feature856'
p1707
sS'l6_featurecppKeywordsalignof'
p1708
S'feature857'
p1709
sS'BigramCursorKind.UNARY_OPERATORCursorKind.DECL_REF_EXPRBLANKS'
p1710
S'feature2207'
p1711
sS'BigramCursorKind.CALL_EXPRCursorKind.UNEXPOSED_EXPRcheckj'
p1712
S'feature858'
p1713
sS'BigramCursorKind.CALL_EXPRCursorKind.UNEXPOSED_EXPRchecki'
p1714
S'feature859'
p1715
sS's7_featurewaiting'
p1716
S'feature860'
p1717
sS's7_featuresx'
p1718
S'feature861'
p1719
sS's7_featuresz'
p1720
S'feature862'
p1721
sS's7_featurest'
p1722
S'feature863'
p1723
sS's9_features2'
p1724
S'feature864'
p1725
sS'l1_featuremod'
p1726
S'feature600'
p1727
sS'BigramCursorKind.UNARY_OPERATORCursorKind.DECL_REF_EXPRBLANKind'
p1728
S'feature866'
p1729
sS'l6_featurecppKeywordsprotected'
p1730
S'feature867'
p1731
sS'BigramCursorKind.VAR_DECLCursorKind.INTEGER_LITERALpushBLANK'
p1732
S'feature868'
p1733
sS'BigramCursorKind.COMPOUND_ASSIGNMENT_OPERATORCursorKind.UNEXPOSED_EXPRBLANKBLANK'
p1734
S'feature869'
p1735
sS'BigramCursorKind.UNARY_OPERATORCursorKind.DECL_REF_EXPRBLANKinv'
p1736
S'feature870'
p1737
sS'BigramCursorKind.UNARY_OPERATORCursorKind.ARRAY_SUBSCRIPT_EXPRBLANKBLANK'
p1738
S'feature871'
p1739
sS'BigramCursorKind.CALL_EXPRCursorKind.DECL_REF_EXPRcheckx'
p1740
S'feature872'
p1741
sS's7tfidf_featureyc'
p1742
S'feature873'
p1743
sS's7_featuresolve_p'
p1744
S'feature874'
p1745
sS'BigramCursorKind.BINARY_OPERATORCursorKind.DECL_REF_EXPRBLANKt2'
p1746
S'feature875'
p1747
sS's7_featurecheck'
p1748
S'feature876'
p1749
sS'l1_featurepath'
p1750
S'feature877'
p1751
sS's9_featuremake_pair'
p1752
S'feature878'
p1753
sS'l1_featureii'
p1754
S'feature879'
p1755
sS'BigramCursorKind.ARRAY_SUBSCRIPT_EXPRCursorKind.UNEXPOSED_EXPRBLANKhere'
p1756
S'feature880'
p1757
sS'BigramCursorKind.ARRAY_SUBSCRIPT_EXPRCursorKind.UNEXPOSED_EXPRBLANKr1'
p1758
S'feature151'
p1759
sS'l1_featurein'
p1760
S'feature882'
p1761
sS'l1_featurecmath'
p1762
S'feature883'
p1763
sS'l1_featureif'
p1764
S'feature884'
p1765
sS's7_featurec2'
p1766
S'feature583'
p1767
sS'l1_feature<<'
p1768
S'feature886'
p1769
sS'l1_feature<='
p1770
S'feature887'
p1771
sS'l1_featureit'
p1772
S'feature889'
p1773
sS'BigramCursorKind.UNARY_OPERATORCursorKind.DECL_REF_EXPRBLANKctr2'
p1774
S'feature890'
p1775
sS'l6_featurecppKeywordsfloat'
p1776
S'feature891'
p1777
sS'BigramCursorKind.RETURN_STMTCursorKind.UNARY_OPERATORBLANKBLANK'
p1778
S'feature892'
p1779
sS'BigramCursorKind.FUNCTION_DECLCursorKind.PARM_DECLgcda'
p1780
S'feature893'
p1781
sS'BigramCursorKind.FUNCTION_DECLCursorKind.PARM_DECLgcdb'
p1782
S'feature894'
p1783
sS'l6_featurecppKeywordsor'
p1784
S'feature895'
p1785
sS's7tfidf_featuregetans'
p1786
S'feature588'
p1787
sS's9_featuretx2'
p1788
S'feature896'
p1789
sS'BigramCursorKind.VAR_DECLCursorKind.DECL_REF_EXPRdstmaxn'
p1790
S'feature897'
p1791
sS'l1_featurememset'
p1792
S'feature898'
p1793
sS'BigramCursorKind.VAR_DECLCursorKind.DECL_REF_EXPRaan'
p1794
S'feature899'
p1795
sS'l6_featurecppKeywordsprivate'
p1796
S'feature900'
p1797
sS'BigramCursorKind.VAR_DECLCursorKind.DECL_REF_EXPRxmaxn'
p1798
S'feature901'
p1799
sS'l1_feature"NO"'
p1800
S'feature777'
p1801
sS'BigramCursorKind.DECL_STMTCursorKind.VAR_DECLBLANKdest'
p1802
S'feature904'
p1803
sS'BigramCursorKind.CXX_METHODCursorKind.COMPOUND_STMToperator<BLANK'
p1804
S'feature905'
p1805
sS'l1_feature// intentionally redundant'
p1806
S'feature906'
p1807
sS'BigramCursorKind.PARM_DECLCursorKind.TYPE_REFrstruct rect'
p1808
S'feature907'
p1809
sS'BigramCursorKind.DECL_STMTCursorKind.VAR_DECLBLANKdstr'
p1810
S'feature908'
p1811
sS'BigramCursorKind.FUNCTION_DECLCursorKind.PARM_DECLcheck2count'
p1812
S'feature909'
p1813
sS'BigramCursorKind.COMPOUND_STMTCursorKind.BINARY_OPERATORBLANKBLANK'
p1814
S'feature910'
p1815
sS'NodeTypeAvgDepCursorKind.CXX_METHOD'
p1816
S'feature911'
p1817
sS'l1_feature" %d"'
p1818
S'feature912'
p1819
sS'BigramCursorKind.FUNCTION_DECLCursorKind.PARM_DECLfind_setv'
p1820
S'feature913'
p1821
sS'lay4feature'
p1822
S'feature914'
p1823
sS'BigramCursorKind.DECL_STMTCursorKind.VAR_DECLBLANKty2'
p1824
S'feature915'
p1825
sS'BigramCursorKind.DECL_STMTCursorKind.VAR_DECLBLANKty1'
p1826
S'feature916'
p1827
sS's7tfidf_featureo'
p1828
S'feature917'
p1829
sS's9_featuretest_case'
p1830
S'feature2050'
p1831
sS'l6_featurecppKeywordsshort'
p1832
S'feature919'
p1833
sS's7tfidf_featurekp'
p1834
S'feature920'
p1835
sS'BigramCursorKind.ARRAY_SUBSCRIPT_EXPRCursorKind.UNEXPOSED_EXPRBLANKsecond'
p1836
S'feature921'
p1837
sS'NodeTypeAvgDepCursorKind.IF_STMT'
p1838
S'feature922'
p1839
sS'l1_featurevis'
p1840
S'feature923'
p1841
sS'NodeTypeAvgDepCursorKind.DECL_STMT'
p1842
S'feature173'
p1843
sS'l1_featureostringstream'
p1844
S'feature2145'
p1845
sS'BigramCursorKind.BINARY_OPERATORCursorKind.DECL_REF_EXPRBLANKind'
p1846
S'feature925'
p1847
sS'l1_feature" bridge-fork"'
p1848
S'feature926'
p1849
sS's7_featureinv'
p1850
S'feature2054'
p1851
sS's3_fatureCursorKind.VAR_DECL'
p1852
S'feature928'
p1853
sS'l1_feature"99999"'
p1854
S'feature929'
p1855
sS'BigramCursorKind.FUNCTION_DECLCursorKind.COMPOUND_STMTinttostrBLANK'
p1856
S'feature930'
p1857
sS'BigramCursorKind.CALL_EXPRCursorKind.UNEXPOSED_EXPRfind_set2a'
p1858
S'feature931'
p1859
sS'BigramCursorKind.CALL_EXPRCursorKind.UNEXPOSED_EXPRfind_set2b'
p1860
S'feature932'
p1861
sS'l1_featuredouble'
p1862
S'feature933'
p1863
sS's9_featuresel'
p1864
S'feature934'
p1865
sS'BigramCursorKind.BINARY_OPERATORCursorKind.UNEXPOSED_EXPRBLANKa'
p1866
S'feature1568'
p1867
sS'BigramCursorKind.COMPOUND_ASSIGNMENT_OPERATORCursorKind.UNEXPOSED_EXPRBLANKdiff'
p1868
S'feature935'
p1869
sS'BigramCursorKind.MEMBER_REF_EXPRCursorKind.DECL_REF_EXPRwr'
p1870
S'feature936'
p1871
sS'l1_featurewaterLevel'
p1872
S'feature937'
p1873
sS'BigramCursorKind.VAR_DECLCursorKind.BINARY_OPERATORtmpBLANK'
p1874
S'feature938'
p1875
sS's9_featurecap'
p1876
S'feature939'
p1877
sS'BigramCursorKind.VAR_DECLCursorKind.INTEGER_LITERALbufBLANK'
p1878
S'feature2049'
p1879
sS'l1_featurealpha'
p1880
S'feature940'
p1881
sS'l1_feature"D-small-attempt0.in"'
p1882
S'feature941'
p1883
sS's3_fatureCursorKind.DECL_REF_EXPR'
p1884
S'feature942'
p1885
sS'l1_featuretrue'
p1886
S'feature943'
p1887
sS'l1_featurefirst'
p1888
S'feature944'
p1889
sS'BigramCursorKind.DECL_STMTCursorKind.VAR_DECLBLANKkp'
p1890
S'feature945'
p1891
sS's7tfidf_featureS'
p1892
S'feature176'
p1893
sS'BigramCursorKind.FUNCTION_DECLCursorKind.COMPOUND_STMTrotateBLANK'
p1894
S'feature947'
p1895
sS'BigramCursorKind.FUNCTION_DECLCursorKind.PARM_DECLmainargc'
p1896
S'feature948'
p1897
sS's7tfidf_featurestr'
p1898
S'feature949'
p1899
sS'l1_featurecnt'
p1900
S'feature950'
p1901
sS'BigramCursorKind.DECL_STMTCursorKind.VAR_DECLBLANKtest_count'
p1902
S'feature951'
p1903
sS'l1_featureend'
p1904
S'feature952'
p1905
sS's7tfidf_featurestd'
p1906
S'feature953'
p1907
sS'BigramCursorKind.FUNCTION_DECLCursorKind.PARM_DECLmainargv'
p1908
S'feature954'
p1909
sS'l6_featurecppKeywordsthrow'
p1910
S'feature955'
p1911
sS'BigramCursorKind.DECL_STMTCursorKind.VAR_DECLBLANKhere'
p1912
S'feature956'
p1913
sS'BigramCursorKind.UNEXPOSED_EXPRCursorKind.UNEXPOSED_EXPRss'
p1914
S'feature957'
p1915
sS's7tfidf_featuretc_num'
p1916
S'feature1072'
p1917
sS'l1_featuremaxv'
p1918
S'feature959'
p1919
sS'l1_feature1e9'
p1920
S'feature960'
p1921
sS'l1_featurepii'
p1922
S'feature961'
p1923
sS'l1_featuremaxn'
p1924
S'feature962'
p1925
sS'l1_featurepip'
p1926
S'feature963'
p1927
sS'l1_featuremaxh'
p1928
S'feature964'
p1929
sS'BigramCursorKind.COMPOUND_ASSIGNMENT_OPERATORCursorKind.DECL_REF_EXPRBLANKhave'
p1930
S'feature965'
p1931
sS'l1_feature400'
p1932
S'feature966'
p1933
sS'l6_featurecppKeywordsconst_cast'
p1934
S'feature2066'
p1935
sS"l1_feature'b'"
p1936
S'feature968'
p1937
sS'BigramCursorKind.ARRAY_SUBSCRIPT_EXPRCursorKind.UNEXPOSED_EXPRBLANKmx'
p1938
S'feature969'
p1939
sS'BigramCursorKind.WHILE_STMTCursorKind.UNEXPOSED_EXPRBLANKBLANK'
p1940
S'feature970'
p1941
sS'BigramCursorKind.UNEXPOSED_EXPRCursorKind.MEMBER_REF_EXPRrr'
p1942
S'feature971'
p1943
sS'BigramCursorKind.DECL_STMTCursorKind.VAR_DECLBLANKex'
p1944
S'feature972'
p1945
sS's7tfidf_featureparent'
p1946
S'feature973'
p1947
sS'BigramCursorKind.COMPOUND_ASSIGNMENT_OPERATORCursorKind.UNEXPOSED_EXPRBLANKt1'
p1948
S'feature1836'
p1949
sS's7tfidf_featureD'
p1950
S'feature974'
p1951
sS'l1_feature100'
p1952
S'feature975'
p1953
sS'l1_feature"C-small-attempt0.in"'
p1954
S'feature976'
p1955
sS's9_featurefirst'
p1956
S'feature977'
p1957
sS'BigramCursorKind.FOR_STMTCursorKind.FOR_STMTBLANKBLANK'
p1958
S'feature978'
p1959
sS'BigramCursorKind.UNARY_OPERATORCursorKind.UNEXPOSED_EXPRBLANKok'
p1960
S'feature979'
p1961
sS'BigramCursorKind.BINARY_OPERATORCursorKind.DECL_REF_EXPRBLANKmaxval'
p1962
S'feature980'
p1963
sS'BigramCursorKind.BINARY_OPERATORCursorKind.UNEXPOSED_EXPRBLANKnew_y'
p1964
S'feature981'
p1965
sS'BigramCursorKind.BINARY_OPERATORCursorKind.UNEXPOSED_EXPRBLANKnew_x'
p1966
S'feature982'
p1967
sS'BigramCursorKind.FUNCTION_DECLCursorKind.PARM_DECLcanMover1'
p1968
S'feature984'
p1969
sS'BigramCursorKind.FUNCTION_DECLCursorKind.PARM_DECLcanMover2'
p1970
S'feature985'
p1971
sS's9_featurec2'
p1972
S'feature1269'
p1973
sS's9_featurec1'
p1974
S'feature987'
p1975
sS'l1_featurerbegin'
p1976
S'feature988'
p1977
sS'l6_featurecppKeywordsexplicit'
p1978
S'feature989'
p1979
sS'BigramCursorKind.BINARY_OPERATORCursorKind.UNEXPOSED_EXPRBLANKmin_m'
p1980
S'feature990'
p1981
sS'BigramCursorKind.VAR_DECLCursorKind.INTEGER_LITERALszBLANK'
p1982
S'feature991'
p1983
sS's7tfidf_featureinside'
p1984
S'feature1310'
p1985
sS'l1_feature/='
p1986
S'feature993'
p1987
sS'BigramCursorKind.UNARY_OPERATORCursorKind.DECL_REF_EXPRBLANKsz'
p1988
S'feature1315'
p1989
sS'BigramCursorKind.IF_STMTCursorKind.UNEXPOSED_EXPRBLANKb'
p1990
S'feature995'
p1991
sS'BigramCursorKind.BINARY_OPERATORCursorKind.DECL_REF_EXPRBLANKii'
p1992
S'feature996'
p1993
sS'l1_feature//'
p1994
S'feature997'
p1995
sS'BigramCursorKind.BINARY_OPERATORCursorKind.UNEXPOSED_EXPRBLANKlo'
p1996
S'feature998'
p1997
sS'NodeTypeAvgDepCursorKind.WHILE_STMT'
p1998
S'feature999'
p1999
sS'l1_featureppow'
p2000
S'feature1000'
p2001
sS'l1_feature100000'
p2002
S'feature1001'
p2003
sS'BigramCursorKind.VAR_DECLCursorKind.DECL_REF_EXPRhimaxn'
p2004
S'feature1002'
p2005
sS'BigramCursorKind.DECL_STMTCursorKind.VAR_DECLBLANKmax_int'
p2006
S'feature1003'
p2007
sS's9_featurecx'
p2008
S'feature1004'
p2009
sS's9_featurecy'
p2010
S'feature1005'
p2011
sS'BigramCursorKind.FOR_STMTCursorKind.COMPOUND_ASSIGNMENT_OPERATORBLANKBLANK'
p2012
S'feature1006'
p2013
sS'BigramCursorKind.MEMBER_REF_EXPRCursorKind.DECL_REF_EXPRcinside'
p2014
S'feature1007'
p2015
sS's7_featurer2'
p2016
S'feature1008'
p2017
sS's7_featurer1'
p2018
S'feature1009'
p2019
sS'BigramCursorKind.UNEXPOSED_EXPRCursorKind.BINARY_OPERATORBLANKBLANK'
p2020
S'feature1010'
p2021
sS'BigramCursorKind.COMPOUND_ASSIGNMENT_OPERATORCursorKind.DECL_REF_EXPRBLANKcur'
p2022
S'feature1011'
p2023
sS'BigramCursorKind.CALL_EXPRCursorKind.UNEXPOSED_EXPRcheckcx'
p2024
S'feature1012'
p2025
sS'BigramCursorKind.CALL_EXPRCursorKind.UNEXPOSED_EXPRcheckcy'
p2026
S'feature1013'
p2027
sS'l1_featuresecond'
p2028
S'feature1014'
p2029
sS's7tfidf_featurechainsize'
p2030
S'feature1015'
p2031
sS'BigramCursorKind.BINARY_OPERATORCursorKind.UNEXPOSED_EXPRBLANKmax_w'
p2032
S'feature1017'
p2033
sS'BigramCursorKind.ARRAY_SUBSCRIPT_EXPRCursorKind.UNEXPOSED_EXPRBLANKBLANK'
p2034
S'feature1018'
p2035
sS's9_featurewaiting'
p2036
S'feature1020'
p2037
sS'l6_featurecppKeywordsbool'
p2038
S'feature1371'
p2039
sS'l1_featurenamespace'
p2040
S'feature1021'
p2041
sS'BigramCursorKind.VAR_DECLCursorKind.INTEGER_LITERALdpBLANK'
p2042
S'feature1022'
p2043
sS'BigramCursorKind.VAR_DECLCursorKind.UNEXPOSED_EXPRp2BLANK'
p2044
S'feature1023'
p2045
sS's7tfidf_featuremax_dist'
p2046
S'feature1025'
p2047
sS'l1_featuresteps'
p2048
S'feature1026'
p2049
sS's7_featurestate'
p2050
S'feature1027'
p2051
sS'BigramCursorKind.VAR_DECLCursorKind.UNEXPOSED_EXPRstart_yyc'
p2052
S'feature1028'
p2053
sS'BigramCursorKind.IF_STMTCursorKind.UNARY_OPERATORBLANKBLANK'
p2054
S'feature1721'
p2055
sS'l1_featureprint'
p2056
S'feature1030'
p2057
sS'BigramCursorKind.FOR_STMTCursorKind.UNEXPOSED_EXPRBLANKBLANK'
p2058
S'feature1031'
p2059
sS's3_fatureCursorKind.TYPEDEF_DECL'
p2060
S'feature1032'
p2061
sS'BigramCursorKind.FUNCTION_DECLCursorKind.PARM_DECLsolvesum'
p2062
S'feature1033'
p2063
sS'BigramCursorKind.VAR_DECLCursorKind.UNEXPOSED_EXPRmBLANK'
p2064
S'feature1034'
p2065
sS'l1_feature//   printf("%.13lf\\n",waterLevel-lo[r][c]);'
p2066
S'feature1035'
p2067
sS'BigramCursorKind.VAR_DECLCursorKind.CXX_BOOL_LITERAL_EXPRvalidBLANK'
p2068
S'feature1036'
p2069
sS'BigramCursorKind.FUNCTION_DECLCursorKind.PARM_DECLrotatenew_x'
p2070
S'feature1037'
p2071
sS's7tfidf_featurevalid'
p2072
S'feature1038'
p2073
sS'BigramCursorKind.DECL_STMTCursorKind.VAR_DECLBLANKtc_num'
p2074
S'feature1039'
p2075
sS'l1_featureused'
p2076
S'feature1040'
p2077
sS'l6_featurecppKeywordselse'
p2078
S'feature1041'
p2079
sS's7_featurefind_set2'
p2080
S'feature1042'
p2081
sS'BigramCursorKind.UNARY_OPERATORCursorKind.DECL_REF_EXPRBLANKres'
p2082
S'feature1043'
p2083
sS'l1_featuretp'
p2084
S'feature1044'
p2085
sS'l1_featurett'
p2086
S'feature1045'
p2087
sS'l1_featurechar'
p2088
S'feature1046'
p2089
sS'l1_featurecost'
p2090
S'feature1047'
p2091
sS'l1_featurectime'
p2092
S'feature1048'
p2093
sS'BigramCursorKind.VAR_DECLCursorKind.CXX_BOOL_LITERAL_EXPRokBLANK'
p2094
S'feature1049'
p2095
sS'l1_featuretc'
p2096
S'feature1050'
p2097
sS'l1_feature// modify ok[][]'
p2098
S'feature1051'
p2099
sS's7_featurecsize'
p2100
S'feature1052'
p2101
sS'l1_feature//    |'
p2102
S'feature1053'
p2103
sS'BigramCursorKind.UNEXPOSED_EXPRCursorKind.MEMBER_REF_EXPRcc'
p2104
S'feature1054'
p2105
sS'l1_featureforks'
p2106
S'feature1055'
p2107
sS'BigramCursorKind.CALL_EXPRCursorKind.UNEXPOSED_EXPRmovei'
p2108
S'feature1056'
p2109
sS'BigramCursorKind.CALL_EXPRCursorKind.UNEXPOSED_EXPRmovej'
p2110
S'feature1057'
p2111
sS's9_featurestd'
p2112
S'feature1058'
p2113
sS'BigramCursorKind.VAR_DECLCursorKind.UNEXPOSED_EXPRnew_xcx'
p2114
S'feature1059'
p2115
sS's7tfidf_feature"our language is impossible to understandthere are twenty six factorial possibilitiesso it is okay if you want to just give up"'
p2116
S'feature1060'
p2117
sS'BigramCursorKind.UNEXPOSED_EXPRCursorKind.UNEXPOSED_EXPRokok'
p2118
S'feature1061'
p2119
sS'l1_feature"Bad magician!\\n"'
p2120
S'feature1062'
p2121
sS'BigramCursorKind.DECL_STMTCursorKind.VAR_DECLBLANKtx1'
p2122
S'feature1063'
p2123
sS's7tfidf_featurepred'
p2124
S'feature1064'
p2125
sS's7tfidf_featuretests'
p2126
S'feature1065'
p2127
sS's9_featurestr'
p2128
S'feature1066'
p2129
sS'l1_featuret2'
p2130
S'feature1067'
p2131
sS'BigramCursorKind.IF_STMTCursorKind.BINARY_OPERATORBLANKBLANK'
p2132
S'feature1068'
p2133
sS'l1_featuret1'
p2134
S'feature1069'
p2135
sS's7_featuresolve'
p2136
S'feature1070'
p2137
sS'l1_featurefl'
p2138
S'feature1071'
p2139
sS'l1_featureans'
p2140
S'feature958'
p2141
sS's7tfidf_featureused'
p2142
S'feature1073'
p2143
sS'l1_featuresolve1'
p2144
S'feature1074'
p2145
sS'l1_featuresolve2'
p2146
S'feature1075'
p2147
sS'NodeTypeAvgDepCursorKind.CONTINUE_STMT'
p2148
S'feature1308'
p2149
sS's9_featurepr'
p2150
S'feature1077'
p2151
sS's9_featurepw'
p2152
S'feature1078'
p2153
sS's9_featurepc'
p2154
S'feature1079'
p2155
sS'l1_featurediff'
p2156
S'feature1080'
p2157
sS'l1_featurestr'
p2158
S'feature2023'
p2159
sS's7tfidf_featuresel'
p2160
S'feature1082'
p2161
sS'l1_feature"w"'
p2162
S'feature213'
p2163
sS'BigramCursorKind.BINARY_OPERATORCursorKind.UNEXPOSED_EXPRBLANKchainsize'
p2164
S'feature1084'
p2165
sS's9_featurelast'
p2166
S'feature1085'
p2167
sS'BigramCursorKind.DECL_STMTCursorKind.VAR_DECLBLANKdiff'
p2168
S'feature1311'
p2169
sS's9_featuresoly'
p2170
S'feature1087'
p2171
sS's9_featuresolx'
p2172
S'feature1088'
p2173
sS'BigramCursorKind.FUNCTION_DECLCursorKind.PARM_DECLrotatecx'
p2174
S'feature1090'
p2175
sS's9_featurep3'
p2176
S'feature1091'
p2177
sS's9_featurep2'
p2178
S'feature1092'
p2179
sS"l1_feature's'"
p2180
S'feature1093'
p2181
sS'BigramCursorKind.VAR_DECLCursorKind.UNEXPOSED_EXPRcs'
p2182
S'feature1094'
p2183
sS's4_featureCursorKind.INIT_LIST_EXPR'
p2184
S'feature1095'
p2185
sS's9_featurep4'
p2186
S'feature1096'
p2187
sS's9_featurectr'
p2188
S'feature1097'
p2189
sS'l1_featurenumlen'
p2190
S'feature1098'
p2191
sS'BigramCursorKind.VAR_DECLCursorKind.DECL_REF_EXPRvisitedmaxn'
p2192
S'feature1099'
p2193
sS'BigramCursorKind.CALL_EXPRCursorKind.UNEXPOSED_EXPRrotatecx'
p2194
S'feature1100'
p2195
sS'BigramCursorKind.CALL_EXPRCursorKind.UNEXPOSED_EXPRrotatecy'
p2196
S'feature1101'
p2197
sS'BigramCursorKind.FUNCTION_DECLCursorKind.PARM_DECLcheck2ind'
p2198
S'feature1102'
p2199
sS's3_fatureCursorKind.COMPOUND_STMT'
p2200
S'feature1103'
p2201
sS'BigramCursorKind.USING_DIRECTIVECursorKind.NAMESPACE_REFBLANKstd'
p2202
S'feature1104'
p2203
sS'BigramCursorKind.VAR_DECLCursorKind.INTEGER_LITERALLsumBLANK'
p2204
S'feature1105'
p2205
sS'BigramCursorKind.VAR_DECLCursorKind.UNEXPOSED_EXPRnew_ycy'
p2206
S'feature1106'
p2207
sS'l1_feature%'
p2208
S'feature221'
p2209
sS'l1_featurepair'
p2210
S'feature1108'
p2211
sS's7tfidf_featurell'
p2212
S'feature1109'
p2213
sS's7tfidf_featurelo'
p2214
S'feature1110'
p2215
sS'l1_feature!'
p2216
S'feature1111'
p2217
sS's7tfidf_featuretmp'
p2218
S'feature1112'
p2219
sS'BigramCursorKind.COMPOUND_STMTCursorKind.CALL_EXPRBLANKsolve'
p2220
S'feature1113'
p2221
sS'BigramCursorKind.CALL_EXPRCursorKind.DECL_REF_EXPRcheckstart_y'
p2222
S'feature1114'
p2223
sS'BigramCursorKind.CALL_EXPRCursorKind.DECL_REF_EXPRcheckstart_x'
p2224
S'feature1115'
p2225
sS'NodeTypeAvgDepCursorKind.VAR_DECL'
p2226
S'feature1116'
p2227
sS"l1_feature'a'"
p2228
S'feature1117'
p2229
sS'BigramCursorKind.FUNCTION_DECLCursorKind.PARM_DECLcanMovec2'
p2230
S'feature1118'
p2231
sS'BigramCursorKind.FUNCTION_DECLCursorKind.PARM_DECLcanMovec1'
p2232
S'feature1119'
p2233
sS'BigramCursorKind.UNARY_OPERATORCursorKind.DECL_REF_EXPRBLANKtc'
p2234
S'feature1120'
p2235
sS'l1_feature/'
p2236
S'feature227'
p2237
sS's3_fatureCursorKind.STRING_LITERAL'
p2238
S'feature1122'
p2239
sS'BigramCursorKind.BINARY_OPERATORCursorKind.UNEXPOSED_EXPRBLANKaa'
p2240
S'feature1123'
p2241
sS'BigramCursorKind.VAR_DECLCursorKind.INTEGER_LITERALpredBLANK'
p2242
S'feature1124'
p2243
sS'l1_feature"Impossible"'
p2244
S'feature1125'
p2245
sS's9_featuremax_dist'
p2246
S'feature1126'
p2247
sS'l6_featurecppKeywordsasm'
p2248
S'feature1127'
p2249
sS'BigramCursorKind.VAR_DECLCursorKind.INTEGER_LITERALretBLANK'
p2250
S'feature1128'
p2251
sS'BigramCursorKind.WHILE_STMTCursorKind.UNEXPOSED_EXPRBLANKx'
p2252
S'feature810'
p2253
sS's7tfidf_featurevis'
p2254
S'feature1130'
p2255
sS'l1_feature//printf("root at %d: %d\\n",i+1,sz[i]);'
p2256
S'feature1131'
p2257
sS'l6_featurecppKeywordsdelete'
p2258
S'feature1132'
p2259
sS's7_featurearr'
p2260
S'feature1133'
p2261
sS's9_featurehave'
p2262
S'feature1134'
p2263
sS's3_fatureCursorKind.FOR_STMT'
p2264
S'feature2085'
p2265
sS'l1_feature1000'
p2266
S'feature1136'
p2267
sS'BigramCursorKind.DECL_STMTCursorKind.VAR_DECLBLANKLsum'
p2268
S'feature1137'
p2269
sS'BigramCursorKind.BINARY_OPERATORCursorKind.UNEXPOSED_EXPRBLANKty2'
p2270
S'feature1138'
p2271
sS'BigramCursorKind.BINARY_OPERATORCursorKind.UNEXPOSED_EXPRBLANKty1'
p2272
S'feature1139'
p2273
sS'BigramCursorKind.VAR_DECLCursorKind.INTEGER_LITERALctrBLANK'
p2274
S'feature620'
p2275
sS'l1_featurecmp'
p2276
S'feature1141'
p2277
sS'l6_featurecppKeywordsfriend'
p2278
S'feature2086'
p2279
sS's9_featureadd_r'
p2280
S'feature1144'
p2281
sS'BigramCursorKind.BINARY_OPERATORCursorKind.DECL_REF_EXPRBLANKm'
p2282
S'feature1145'
p2283
sS'NodeTypeAvgDepCursorKind.ARRAY_SUBSCRIPT_EXPR'
p2284
S'feature1146'
p2285
sS's7tfidf_featureargc'
p2286
S'feature1147'
p2287
sS's4_featureCursorKind.NULL_STMT'
p2288
S'feature1148'
p2289
sS's9_featureb1'
p2290
S'feature1149'
p2291
sS'BigramCursorKind.UNARY_OPERATORCursorKind.UNEXPOSED_EXPRBLANKeps'
p2292
S'feature1150'
p2293
sS's9_featureb2'
p2294
S'feature1151'
p2295
sS'l1_featurebuf1'
p2296
S'feature1152'
p2297
sS's7tfidf_featureargv'
p2298
S'feature1153'
p2299
sS'l1_featurebuf2'
p2300
S'feature1154'
p2301
sS'l1_featuretypedef'
p2302
S'feature1155'
p2303
sS's9_featuretc_num'
p2304
S'feature1156'
p2305
sS's7tfidf_featuremaxn'
p2306
S'feature1319'
p2307
sS'BigramCursorKind.CALL_EXPRCursorKind.INTEGER_LITERALsolve_pBLANK'
p2308
S'feature1158'
p2309
sS'BigramCursorKind.CALL_EXPRCursorKind.UNEXPOSED_EXPRnumlenval'
p2310
S'feature1159'
p2311
sS'BigramCursorKind.BINARY_OPERATORCursorKind.UNEXPOSED_EXPRBLANKadd_r'
p2312
S'feature1160'
p2313
sS'l1_featureunion_sets2'
p2314
S'feature1161'
p2315
sS'BigramCursorKind.COMPOUND_ASSIGNMENT_OPERATORCursorKind.DECL_REF_EXPRBLANKp2'
p2316
S'feature1162'
p2317
sS's3_fatureCursorKind.CXX_METHOD'
p2318
S'feature1163'
p2319
sS'BigramCursorKind.VAR_DECLCursorKind.INTEGER_LITERALwasBLANK'
p2320
S'feature2092'
p2321
sS'BigramCursorKind.DECL_STMTCursorKind.VAR_DECLBLANKnew_y'
p2322
S'feature245'
p2323
sS'BigramCursorKind.FOR_STMTCursorKind.DECL_STMTBLANKBLANK'
p2324
S'feature1166'
p2325
sS'BigramCursorKind.UNEXPOSED_EXPRCursorKind.CHARACTER_LITERALBLANKBLANK'
p2326
S'feature1167'
p2327
sS'BigramCursorKind.DECL_STMTCursorKind.VAR_DECLBLANKmid'
p2328
S'feature1169'
p2329
sS'l1_featureszc'
p2330
S'feature1170'
p2331
sS's7_featurety1'
p2332
S'feature1171'
p2333
sS'BigramCursorKind.BINARY_OPERATORCursorKind.UNEXPOSED_EXPRBLANKcsize'
p2334
S'feature1172'
p2335
sS's7_featurety2'
p2336
S'feature1173'
p2337
sS'BigramCursorKind.VAR_DECLCursorKind.UNEXPOSED_EXPRiin'
p2338
S'feature1174'
p2339
sS'BigramCursorKind.RETURN_STMTCursorKind.UNEXPOSED_EXPRBLANKstate'
p2340
S'feature1175'
p2341
sS'BigramCursorKind.COMPOUND_ASSIGNMENT_OPERATORCursorKind.DECL_REF_EXPRBLANKpw'
p2342
S'feature1176'
p2343
sS'l1_featuremap'
p2344
S'feature1177'
p2345
sS'BigramCursorKind.DECL_STMTCursorKind.VAR_DECLBLANKdim'
p2346
S'feature1178'
p2347
sS'l6_featurecppKeywordsnamespace'
p2348
S'feature1179'
p2349
sS'l1_featuremax'
p2350
S'feature1180'
p2351
sS'NodeTypeAvgDepCursorKind.STRING_LITERAL'
p2352
S'feature1181'
p2353
sS'BigramCursorKind.VAR_DECLCursorKind.DECL_REF_EXPRsolxmaxn'
p2354
S'feature1182'
p2355
sS's9_featuresum'
p2356
S'feature1183'
p2357
sS'BigramCursorKind.VAR_DECLCursorKind.UNEXPOSED_EXPRcurBLANK'
p2358
S'feature1184'
p2359
sS'l1_featuremax_dist'
p2360
S'feature1185'
p2361
sS'l1_featurefind'
p2362
S'feature1186'
p2363
sS'BigramCursorKind.RETURN_STMTCursorKind.INTEGER_LITERALBLANKBLANK'
p2364
S'feature1187'
p2365
sS's9_featuresup'
p2366
S'feature1188'
p2367
sS'BigramCursorKind.DECL_STMTCursorKind.VAR_DECLBLANKtrain_set'
p2368
S'feature1189'
p2369
sS'BigramCursorKind.ARRAY_SUBSCRIPT_EXPRCursorKind.CHARACTER_LITERALBLANKBLANK'
p2370
S'feature1190'
p2371
sS'l1_featuregr'
p2372
S'feature1191'
p2373
sS'BigramCursorKind.UNARY_OPERATORCursorKind.DECL_REF_EXPRBLANKaa'
p2374
S'feature1192'
p2375
sS'l1_feature::'
p2376
S'feature1193'
p2377
sS's7tfidf_featurelast'
p2378
S'feature1194'
p2379
sS'BigramCursorKind.BINARY_OPERATORCursorKind.ARRAY_SUBSCRIPT_EXPRBLANKBLANK'
p2380
S'feature1195'
p2381
sS'BigramCursorKind.IF_STMTCursorKind.NULL_STMTBLANKBLANK'
p2382
S'feature261'
p2383
sS'l1_feature_DEBUG'
p2384
S'feature1197'
p2385
sS'BigramCursorKind.UNARY_OPERATORCursorKind.DECL_REF_EXPRBLANKctr'
p2386
S'feature1198'
p2387
sS'l6_featurecppKeywordsif'
p2388
S'feature1199'
p2389
sS'BigramCursorKind.VAR_DECLCursorKind.UNEXPOSED_EXPRstart_xxc'
p2390
S'feature1200'
p2391
sS's9_featurenumlen'
p2392
S'feature1202'
p2393
sS'BigramCursorKind.ARRAY_SUBSCRIPT_EXPRCursorKind.UNARY_OPERATORBLANKBLANK'
p2394
S'feature1203'
p2395
sS'BigramCursorKind.COMPOUND_ASSIGNMENT_OPERATORCursorKind.UNEXPOSED_EXPRBLANKbuf'
p2396
S'feature1204'
p2397
sS's3_fatureCursorKind.PARM_DECL'
p2398
S'feature1205'
p2399
sS'BigramCursorKind.BINARY_OPERATORCursorKind.CALL_EXPRBLANKcheck2'
p2400
S'feature1206'
p2401
sS's7tfidf_featuredfs'
p2402
S'feature1207'
p2403
sS'BigramCursorKind.CALL_EXPRCursorKind.UNEXPOSED_EXPRreachablemid'
p2404
S'feature1208'
p2405
sS'BigramCursorKind.VAR_DECLCursorKind.DECL_REF_EXPRsolymaxn'
p2406
S'feature1209'
p2407
sS'BigramCursorKind.FUNCTION_DECLCursorKind.PARM_DECLrotatex'
p2408
S'feature1210'
p2409
sS's7tfidf_featurereachable'
p2410
S'feature1211'
p2411
sS'l1_featuretrain_set'
p2412
S'feature1212'
p2413
sS'BigramCursorKind.COMPOUND_ASSIGNMENT_OPERATORCursorKind.UNEXPOSED_EXPRBLANKpc'
p2414
S'feature1213'
p2415
sS'BigramCursorKind.DECL_STMTCursorKind.VAR_DECLBLANKval'
p2416
S'feature1214'
p2417
sS'BigramCursorKind.CALL_EXPRCursorKind.UNEXPOSED_EXPRcheckcheck'
p2418
S'feature1215'
p2419
sS's9_featurecur'
p2420
S'feature508'
p2421
sS'l1_featureaddx'
p2422
S'feature1217'
p2423
sS's7_featureret'
p2424
S'feature1218'
p2425
sS's7tfidf_featuremx'
p2426
S'feature1219'
p2427
sS's7_featureres'
p2428
S'feature276'
p2429
sS'BigramCursorKind.CALL_EXPRCursorKind.UNEXPOSED_EXPRgcdgcd'
p2430
S'feature1221'
p2431
sS'BigramCursorKind.VAR_DECLCursorKind.INTEGER_LITERALtestBLANK'
p2432
S'feature1222'
p2433
sS'BigramCursorKind.DECL_STMTCursorKind.VAR_DECLBLANKtmp'
p2434
S'feature1223'
p2435
sS's7tfidf_featuremn'
p2436
S'feature1224'
p2437
sS's7tfidf_featureml'
p2438
S'feature1225'
p2439
sS'BigramCursorKind.RETURN_STMTCursorKind.BINARY_OPERATORBLANKBLANK'
p2440
S'feature1226'
p2441
sS'BigramCursorKind.DECL_STMTCursorKind.VAR_DECLBLANKadd'
p2442
S'feature1227'
p2443
sS'l1_featurej'
p2444
S'feature279'
p2445
sS'BigramCursorKind.VAR_DECLCursorKind.INTEGER_LITERALpwBLANK'
p2446
S'feature1594'
p2447
sS'l1_featureadd2'
p2448
S'feature1230'
p2449
sS's4_featureCursorKind.TYPE_REF'
p2450
S'feature1231'
p2451
sS'BigramCursorKind.FOR_STMTCursorKind.IF_STMTBLANKBLANK'
p2452
S'feature1233'
p2453
sS'l1_featureus'
p2454
S'feature1234'
p2455
sS'BigramCursorKind.DECL_STMTCursorKind.VAR_DECLBLANKpush'
p2456
S'feature1235'
p2457
sS'l1_featureR'
p2458
S'feature1236'
p2459
sS"l1_feature'r'"
p2460
S'feature1237'
p2461
sS's7_featuregcd'
p2462
S'feature1238'
p2463
sS's7_featuretrain_res'
p2464
S'feature1239'
p2465
sS's9_featuregcd'
p2466
S'feature1240'
p2467
sS'l1_featuretc_num'
p2468
S'feature1242'
p2469
sS's7_feature"ejp mysljylc kd kxveddknmc re jsicpdrysirbcpc ypc rtcsra dkh wyfrepkym veddknkmkrkcdde kr kd eoya kw aej tysr re ujdr lkgc jv"'
p2470
S'feature1243'
p2471
sS'l1_featurecheck'
p2472
S'feature1244'
p2473
sS's7tfidf_featureminval'
p2474
S'feature1245'
p2475
sS'l1_featurepos'
p2476
S'feature1246'
p2477
sS'l1_featurepop'
p2478
S'feature1247'
p2479
sS's9_featuresz'
p2480
S'feature1248'
p2481
sS's9_featuresx'
p2482
S'feature1249'
p2483
sS's9_featurest'
p2484
S'feature1250'
p2485
sS'l1_featureunsigned'
p2486
S'feature1251'
p2487
sS'BigramCursorKind.UNEXPOSED_EXPRCursorKind.UNEXPOSED_EXPRcc'
p2488
S'feature1252'
p2489
sS'l1_featureC'
p2490
S'feature294'
p2491
sS's7tfidf_featurecheck2'
p2492
S'feature1255'
p2493
sS'l1_featurereachable'
p2494
S'feature1256'
p2495
sS'l1_featuresurvive'
p2496
S'feature1257'
p2497
sS'l1_featurenew_x'
p2498
S'feature1258'
p2499
sS's7_featureos'
p2500
S'feature298'
p2501
sS'BigramCursorKind.ARRAY_SUBSCRIPT_EXPRCursorKind.UNEXPOSED_EXPRBLANKnew_y'
p2502
S'feature1260'
p2503
sS'BigramCursorKind.ARRAY_SUBSCRIPT_EXPRCursorKind.UNEXPOSED_EXPRBLANKnew_x'
p2504
S'feature1261'
p2505
sS'l1_featuresets'
p2506
S'feature1262'
p2507
sS'BigramCursorKind.VAR_DECLCursorKind.UNEXPOSED_EXPRtBLANK'
p2508
S'feature1263'
p2509
sS'l1_feature"YES"'
p2510
S'feature1264'
p2511
sS'BigramCursorKind.VAR_DECLCursorKind.UNEXPOSED_EXPRty1cy'
p2512
S'feature1265'
p2513
sS's7tfidf_featurecomp'
p2514
S'feature1266'
p2515
sS'BigramCursorKind.UNARY_OPERATORCursorKind.DECL_REF_EXPRBLANKcs'
p2516
S'feature1267'
p2517
sS'l1_featurelong'
p2518
S'feature1268'
p2519
sS'l1_feature!='
p2520
S'feature983'
p2521
sS'l1_feature"%s"'
p2522
S'feature1270'
p2523
sS's9_featurepack'
p2524
S'feature1271'
p2525
sS'l1_featureinttostr'
p2526
S'feature2047'
p2527
sS'BigramCursorKind.STRUCT_DECLCursorKind.CXX_METHODrectoperator<'
p2528
S'feature1273'
p2529
sS's7_featurecmp'
p2530
S'feature1274'
p2531
sS's7_featurepw'
p2532
S'feature1275'
p2533
sS's7_featurepr'
p2534
S'feature1276'
p2535
sS'BigramCursorKind.VAR_DECLCursorKind.UNEXPOSED_EXPRhiBLANK'
p2536
S'feature1277'
p2537
sS's7tfidf_featureb1'
p2538
S'feature2048'
p2539
sS'BigramCursorKind.VAR_DECLCursorKind.INTEGER_LITERALmax_jBLANK'
p2540
S'feature1278'
p2541
sS'BigramCursorKind.UNARY_OPERATORCursorKind.UNEXPOSED_EXPRBLANKBLANK'
p2542
S'feature1279'
p2543
sS's7_featurepc'
p2544
S'feature1280'
p2545
sS'BigramCursorKind.COMPOUND_STMTCursorKind.FOR_STMTBLANKBLANK'
p2546
S'feature1724'
p2547
sS's7tfidf_featuresolve_p'
p2548
S'feature1281'
p2549
sS'BigramCursorKind.VAR_DECLCursorKind.DECL_REF_EXPRpmaxn'
p2550
S'feature304'
p2551
sS'BigramCursorKind.COMPOUND_STMTCursorKind.CALL_EXPRBLANKrotate'
p2552
S'feature1283'
p2553
sS'BigramCursorKind.BINARY_OPERATORCursorKind.FLOATING_LITERALBLANKBLANK'
p2554
S'feature1284'
p2555
sS'BigramCursorKind.VAR_DECLCursorKind.TYPE_REFinsidestruct rect'
p2556
S'feature1285'
p2557
sS's9_featuremaxv'
p2558
S'feature1286'
p2559
sS'BigramCursorKind.DECL_STMTCursorKind.VAR_DECLBLANKctr'
p2560
S'feature1287'
p2561
sS'BigramCursorKind.DECL_STMTCursorKind.VAR_DECLBLANKchainsize'
p2562
S'feature1288'
p2563
sS'l1_feature-='
p2564
S'feature1289'
p2565
sS'l1_feature->'
p2566
S'feature1290'
p2567
sS's7tfidf_featureex'
p2568
S'feature306'
p2569
sS'l1_feature--'
p2570
S'feature1292'
p2571
sS's9_featuremaxn'
p2572
S'feature1293'
p2573
sS'BigramCursorKind.VAR_DECLCursorKind.INTEGER_LITERALtoposortBLANK'
p2574
S'feature1294'
p2575
sS's9_featuremaxh'
p2576
S'feature1295'
p2577
sS's7_featurep4'
p2578
S'feature1296'
p2579
sS's7_featurep1'
p2580
S'feature1297'
p2581
sS's7_featurep3'
p2582
S'feature1298'
p2583
sS's7_featurep2'
p2584
S'feature1299'
p2585
sS'l1_featuredist'
p2586
S'feature1300'
p2587
sS's9_featuremx'
p2588
S'feature1301'
p2589
sS'BigramCursorKind.BINARY_OPERATORCursorKind.UNEXPOSED_EXPRBLANKtx1'
p2590
S'feature1302'
p2591
sS'BigramCursorKind.BINARY_OPERATORCursorKind.UNEXPOSED_EXPRBLANKtx2'
p2592
S'feature1303'
p2593
sS'l1_featuredstr'
p2594
S'feature1304'
p2595
sS's9_featureml'
p2596
S'feature1305'
p2597
sS's9_featuremn'
p2598
S'feature1306'
p2599
sS'l1_feature"output.txt"'
p2600
S'feature1307'
p2601
sS'l1_featurerotate'
p2602
S'feature1076'
p2603
sS'l1_featureputs'
p2604
S'feature1309'
p2605
sS'l1_feature"Case #"'
p2606
S'feature992'
p2607
sS'BigramCursorKind.BINARY_OPERATORCursorKind.DECL_REF_EXPRBLANKsx'
p2608
S'feature1086'
p2609
sS'NodeTypeAvgDepCursorKind.RETURN_STMT'
p2610
S'feature1312'
p2611
sS'BigramCursorKind.UNARY_OPERATORCursorKind.UNEXPOSED_EXPRBLANKres'
p2612
S'feature1313'
p2613
sS's3_fatureCursorKind.CHARACTER_LITERAL'
p2614
S'feature1314'
p2615
sS'l1_feature26'
p2616
S'feature1129'
p2617
sS'l1_featuredeque'
p2618
S'feature994'
p2619
sS's7tfidf_featuretx2'
p2620
S'feature1316'
p2621
sS's7tfidf_featuretx1'
p2622
S'feature1317'
p2623
sS's7_featuretx2'
p2624
S'feature1318'
p2625
sS's7_featuretx1'
p2626
S'feature1157'
p2627
sS's7tfidf_featuremaxh'
p2628
S'feature1320'
p2629
sS'BigramCursorKind.WHILE_STMTCursorKind.COMPOUND_STMTBLANKBLANK'
p2630
S'feature1321'
p2631
sS'l1_feature256'
p2632
S'feature1322'
p2633
sS'l1_feature//cout<<node<<" ";'
p2634
S'feature1323'
p2635
sS's7tfidf_featuremaxv'
p2636
S'feature1324'
p2637
sS'l1_feature1.0'
p2638
S'feature1325'
p2639
sS'l1_featurepassedTime'
p2640
S'feature1326'
p2641
sS'BigramCursorKind.BINARY_OPERATORCursorKind.UNEXPOSED_EXPRBLANKlast'
p2642
S'feature1327'
p2643
sS'l1_feature255'
p2644
S'feature1328'
p2645
sS'BigramCursorKind.FUNCTION_DECLCursorKind.COMPOUND_STMTlesssBLANK'
p2646
S'feature1329'
p2647
sS'BigramCursorKind.FUNCTION_DECLCursorKind.COMPOUND_STMTdfsBLANK'
p2648
S'feature1330'
p2649
sS'BigramCursorKind.VAR_DECLCursorKind.UNEXPOSED_EXPRoou'
p2650
S'feature1331'
p2651
sS'l1_featurepop_back'
p2652
S'feature1332'
p2653
sS'l1_feature"yeq ejp mysljylc kd kxveddknmc re jsicpdrysi rbcpc ypc rtcsra dkh wyfrepkym veddknkmkrkcd de kr kd eoya kw aej tysr re ujdr lkgc jv"'
p2654
S'feature1333'
p2655
sS'BigramCursorKind.VAR_DECLCursorKind.UNEXPOSED_EXPRtmpa'
p2656
S'feature1334'
p2657
sS'l1_feature"aoz our language is impossible to understand there are twenty six factorial possibilities so it is okay if you want to just give up"'
p2658
S'feature1335'
p2659
sS'NodeTypeAvgDepCursorKind.TYPEDEF_DECL'
p2660
S'feature650'
p2661
sS's9_featuredst'
p2662
S'feature1337'
p2663
sS'BigramCursorKind.COMPOUND_STMTCursorKind.UNARY_OPERATORBLANKBLANK'
p2664
S'feature1338'
p2665
sS'BigramCursorKind.IF_STMTCursorKind.CALL_EXPRBLANKrotate'
p2666
S'feature1339'
p2667
sS's3_fatureCursorKind.USING_DIRECTIVE'
p2668
S'feature1340'
p2669
sS'l1_featurecomplete'
p2670
S'feature1341'
p2671
sS'BigramCursorKind.VAR_DECLCursorKind.UNEXPOSED_EXPRcxxc'
p2672
S'feature1342'
p2673
sS'l1_featurekey2'
p2674
S'feature1343'
p2675
sS'BigramCursorKind.FUNCTION_DECLCursorKind.COMPOUND_STMTmainBLANK'
p2676
S'feature1344'
p2677
sS's3_fatureCursorKind.UNEXPOSED_EXPR'
p2678
S'feature1345'
p2679
sS'l6_featurecppKeywordsreinterpret_cast'
p2680
S'feature1346'
p2681
sS'l6_featurecppKeywordsdo'
p2682
S'feature1347'
p2683
sS'l1_featurecout'
p2684
S'feature1348'
p2685
sS's7_featuredest'
p2686
S'feature1349'
p2687
sS's3_fatureCursorKind.RETURN_STMT'
p2688
S'feature1350'
p2689
sS'BigramCursorKind.MEMBER_REF_EXPRCursorKind.DECL_REF_EXPRhr'
p2690
S'feature1351'
p2691
sS'l1_feature&&'
p2692
S'feature2127'
p2693
sS'l1_featurevisited'
p2694
S'feature1743'
p2695
sS'BigramCursorKind.DECL_STMTCursorKind.VAR_DECLBLANKctr2'
p2696
S'feature1354'
p2697
sS'l6_featurecppKeywordschar'
p2698
S'feature317'
p2699
sS'l1_featurer1'
p2700
S'feature1356'
p2701
sS'l1_featurer2'
p2702
S'feature1357'
p2703
sS'l1_featurecheck2'
p2704
S'feature1358'
p2705
sS's3_fatureCursorKind.TYPE_REF'
p2706
S'feature1359'
p2707
sS'BigramCursorKind.VAR_DECLCursorKind.INTEGER_LITERALtBLANK'
p2708
S'feature1360'
p2709
sS'l1_featuredo'
p2710
S'feature1361'
p2711
sS'BigramCursorKind.UNEXPOSED_EXPRCursorKind.CALL_EXPRsurvivesurvive'
p2712
S'feature1362'
p2713
sS'l1_featuredp'
p2714
S'feature1363'
p2715
sS'l1_featuredx'
p2716
S'feature1364'
p2717
sS'l1_featuredy'
p2718
S'feature1365'
p2719
sS's7_featuresets'
p2720
S'feature1366'
p2721
sS"l1_feature'.'"
p2722
S'feature1367'
p2723
sS'l1_featurebreak'
p2724
S'feature1368'
p2725
sS's4_featureCursorKind.CHARACTER_LITERAL'
p2726
S'feature1369'
p2727
sS's4_featureCursorKind.INTEGER_LITERAL'
p2728
S'feature1370'
p2729
sS's9_featurecs'
p2730
S'feature888'
p2731
sS's7tfidf_featuresrc'
p2732
S'feature1372'
p2733
sS'l1_feature": "'
p2734
S'feature1373'
p2735
sS's7_featuretest_count'
p2736
S'feature660'
p2737
sS'BigramCursorKind.COMPOUND_STMTCursorKind.COMPOUND_STMTBLANKBLANK'
p2738
S'feature1375'
p2739
sS'l1_feature2000'
p2740
S'feature1745'
p2741
sS'l1_featureputchar'
p2742
S'feature1377'
p2743
sS'BigramCursorKind.VAR_DECLCursorKind.INTEGER_LITERALsolBLANK'
p2744
S'feature1378'
p2745
sS'BigramCursorKind.VAR_DECLCursorKind.UNEXPOSED_EXPRkpBLANK'
p2746
S'feature1379'
p2747
sS's9_featurerotate'
p2748
S'feature1380'
p2749
sS'l1_feature"Izlaz_gcj_c.txt"'
p2750
S'feature1381'
p2751
sS'BigramCursorKind.CONSTRUCTORCursorKind.PARM_DECLrectp3'
p2752
S'feature1382'
p2753
sS's3_fatureCursorKind.INIT_LIST_EXPR'
p2754
S'feature1383'
p2755
sS'BigramCursorKind.CONSTRUCTORCursorKind.PARM_DECLrectp1'
p2756
S'feature1384'
p2757
sS"l1_feature'q'"
p2758
S'feature1385'
p2759
sS'BigramCursorKind.CONSTRUCTORCursorKind.PARM_DECLrectp4'
p2760
S'feature1386'
p2761
sS'l1_feature"error!"'
p2762
S'feature1387'
p2763
sS'l1_featuredst'
p2764
S'feature1388'
p2765
sS'BigramCursorKind.UNARY_OPERATORCursorKind.DECL_REF_EXPRBLANKnew_x'
p2766
S'feature1389'
p2767
sS'BigramCursorKind.UNARY_OPERATORCursorKind.DECL_REF_EXPRBLANKnew_y'
p2768
S'feature1390'
p2769
sS'l1_feature//  cout<<tests<<endl;'
p2770
S'feature1391'
p2771
sS's7_featurecomplete'
p2772
S'feature1392'
p2773
sS's9_featurectr2'
p2774
S'feature2132'
p2775
sS'BigramCursorKind.VAR_DECLCursorKind.INIT_LIST_EXPRusedBLANK'
p2776
S'feature1394'
p2777
sS'l1_feature"Case #%d: %0.8lf\\n"'
p2778
S'feature1395'
p2779
sS'BigramCursorKind.UNEXPOSED_EXPRCursorKind.CXX_BOOL_LITERAL_EXPRBLANKBLANK'
p2780
S'feature1396'
p2781
sS's7tfidf_featuresecond'
p2782
S'feature1397'
p2783
sS'BigramCursorKind.COMPOUND_ASSIGNMENT_OPERATORCursorKind.INTEGER_LITERALBLANKBLANK'
p2784
S'feature1989'
p2785
sS's7tfidf_featurerect'
p2786
S'feature1398'
p2787
sS'BigramCursorKind.DECL_STMTCursorKind.VAR_DECLBLANKcur'
p2788
S'feature1399'
p2789
sS's9_featurecount'
p2790
S'feature1400'
p2791
sS'BigramCursorKind.VAR_DECLCursorKind.DECL_REF_EXPRlomaxn'
p2792
S'feature1401'
p2793
sS'l1_featurefor'
p2794
S'feature1402'
p2795
sS'BigramCursorKind.FUNCTION_DECLCursorKind.PARM_DECLunion_sets2b'
p2796
S'feature1403'
p2797
sS'BigramCursorKind.FUNCTION_DECLCursorKind.PARM_DECLunion_sets2a'
p2798
S'feature1404'
p2799
sS'l1_featureml'
p2800
S'feature1405'
p2801
sS'BigramCursorKind.ARRAY_SUBSCRIPT_EXPRCursorKind.UNEXPOSED_EXPRBLANKhi'
p2802
S'feature1406'
p2803
sS'BigramCursorKind.DECL_STMTCursorKind.VAR_DECLBLANKp2'
p2804
S'feature1407'
p2805
sS'BigramCursorKind.COMPOUND_STMTCursorKind.COMPOUND_ASSIGNMENT_OPERATORBLANKBLANK'
p2806
S'feature1408'
p2807
sS's9_featurer1'
p2808
S'feature392'
p2809
sS's9_featurer2'
p2810
S'feature1411'
p2811
sS'BigramCursorKind.WHILE_STMTCursorKind.CXX_BOOL_LITERAL_EXPRBLANKBLANK'
p2812
S'feature1412'
p2813
sS'BigramCursorKind.UNEXPOSED_EXPRCursorKind.UNARY_OPERATORBLANKBLANK'
p2814
S'feature1413'
p2815
sS'l1_featurewhile'
p2816
S'feature1414'
p2817
sS's7_featuretmp'
p2818
S'feature1415'
p2819
sS'l6_featurecppKeywordswchar_t'
p2820
S'feature1416'
p2821
sS'BigramCursorKind.DECL_STMTCursorKind.VAR_DECLBLANKpr'
p2822
S'feature1417'
p2823
sS'BigramCursorKind.VAR_DECLCursorKind.INTEGER_LITERALmaxvalBLANK'
p2824
S'feature1418'
p2825
sS'BigramCursorKind.DECL_STMTCursorKind.VAR_DECLBLANKpw'
p2826
S'feature1419'
p2827
sS"l1_feature'g'"
p2828
S'feature1420'
p2829
sS'l1_feature1e-14'
p2830
S'feature1421'
p2831
sS'l1_feature1e-11'
p2832
S'feature1422'
p2833
sS'l1_feature1e-10'
p2834
S'feature1423'
p2835
sS'l1_feature1e-13'
p2836
S'feature1424'
p2837
sS'BigramCursorKind.DECL_STMTCursorKind.VAR_DECLBLANKpc'
p2838
S'feature1425'
p2839
sS'BigramCursorKind.COMPOUND_STMTCursorKind.NULL_STMTBLANKBLANK'
p2840
S'feature1426'
p2841
sS'BigramCursorKind.FUNCTION_DECLCursorKind.PARM_DECLsolvedx'
p2842
S'feature1427'
p2843
sS's7_featuremid'
p2844
S'feature1428'
p2845
sS'l1_feature205'
p2846
S'feature1429'
p2847
sS's7_featureex'
p2848
S'feature1940'
p2849
sS'l1_feature*='
p2850
S'feature1431'
p2851
sS'BigramCursorKind.ARRAY_SUBSCRIPT_EXPRCursorKind.UNEXPOSED_EXPRBLANKmake_pair'
p2852
S'feature1432'
p2853
sS'l1_featureREP'
p2854
S'feature1433'
p2855
sS'l1_feature/*\r\nint bubble(int x, int y){\r\n   if (x>y) return 0;\r\n   int ctr=0;\r\n   for(int i=x; i<=y; i++){\r\n      int loc=i;\r\n\t  while(loc+1<=y && a[loc]>a[loc+1]){\r\n\t     swap(a[loc],a[loc+1]);\r\n\t\t ctr++;\r\n\t  }\r\n   }\r\n   return ctr;\r\n}\r\n\r\nint bubble2(int x, int y){\r\n   if (x>y) return 0;\r\n   int ctr=0;\r\n   for(int i=x; i<=y; i++){\r\n      int loc=i;\r\n\t  while(loc+1<=y && a[loc]<a[loc+1]){\r\n\t     swap(a[loc],a[loc+1]);\r\n\t\t ctr++;\r\n\t  }\r\n   }\r\n   return ctr;\r\n}\r\n*/'
p2856
S'feature2137'
p2857
sS's9_featurecheck2'
p2858
S'feature1435'
p2859
sS's9_featurepossible'
p2860
S'feature1436'
p2861
sS'BigramCursorKind.BINARY_OPERATORCursorKind.DECL_REF_EXPRBLANKb1'
p2862
S'feature1437'
p2863
sS's7tfidf_featurest'
p2864
S'feature1438'
p2865
sS'BigramCursorKind.CALL_EXPRCursorKind.UNEXPOSED_EXPRdfsi'
p2866
S'feature1439'
p2867
sS'l6_featurecppKeywordsstatic_cast'
p2868
S'feature1440'
p2869
sS's9_featuretime'
p2870
S'feature1441'
p2871
sS'BigramCursorKind.VAR_DECLCursorKind.INTEGER_LITERALbBLANK'
p2872
S'feature1442'
p2873
sS'BigramCursorKind.FOR_STMTCursorKind.UNARY_OPERATORBLANKBLANK'
p2874
S'feature1444'
p2875
sS'l1_featuremake_set'
p2876
S'feature1445'
p2877
sS'BigramCursorKind.ARRAY_SUBSCRIPT_EXPRCursorKind.UNEXPOSED_EXPRBLANKtp'
p2878
S'feature1446'
p2879
sS'BigramCursorKind.INIT_LIST_EXPRCursorKind.INIT_LIST_EXPRBLANKBLANK'
p2880
S'feature1447'
p2881
sS'l1_feature// __'
p2882
S'feature1448'
p2883
sS'l1_feature" bridge-ring"'
p2884
S'feature1449'
p2885
sS's7tfidf_featurety1'
p2886
S'feature1451'
p2887
sS's7_featureans'
p2888
S'feature1452'
p2889
sS's7tfidf_featurety2'
p2890
S'feature1453'
p2891
sS'l1_featurecanMove'
p2892
S'feature1454'
p2893
sS'BigramCursorKind.BINARY_OPERATORCursorKind.CHARACTER_LITERALBLANKBLANK'
p2894
S'feature1455'
p2895
sS's9_featurecomp'
p2896
S'feature1456'
p2897
sS'l1_featurefreopen'
p2898
S'feature1457'
p2899
sS's4_featureCursorKind.CALL_EXPR'
p2900
S'feature1458'
p2901
sS's7_featureppow'
p2902
S'feature1459'
p2903
sS's7_featureN'
p2904
S'feature1460'
p2905
sS'l6_featurecppKeywordsconst'
p2906
S'feature1461'
p2907
sS's7_featureA'
p2908
S'feature1462'
p2909
sS's7_featureB'
p2910
S'feature1463'
p2911
sS's7_featureD'
p2912
S'feature1464'
p2913
sS'l6_featurecppKeywordsnew'
p2914
S'feature1465'
p2915
sS'l1_featurefill'
p2916
S'feature1466'
p2917
sS's7_featureS'
p2918
S'feature1467'
p2919
sS's7_featureT'
p2920
S'feature1468'
p2921
sS's3_fatureCursorKind.CXX_THROW_EXPR'
p2922
S'feature50'
p2923
sS's7_featurei'
p2924
S'feature1470'
p2925
sS's7_featurej'
p2926
S'feature1471'
p2927
sS's7_featurek'
p2928
S'feature1472'
p2929
sS's7_featurel'
p2930
S'feature1473'
p2931
sS's7_featurem'
p2932
S'feature1474'
p2933
sS's7_featuren'
p2934
S'feature1475'
p2935
sS's7_featureo'
p2936
S'feature38'
p2937
sS'l1_feature" in move %d\\n"'
p2938
S'feature1477'
p2939
sS'l1_featurelove'
p2940
S'feature677'
p2941
sS's7_featureb'
p2942
S'feature1479'
p2943
sS's7_featurec'
p2944
S'feature1480'
p2945
sS's7_featured'
p2946
S'feature1481'
p2947
sS's7_featuref'
p2948
S'feature1482'
p2949
sS'BigramCursorKind.DECL_STMTCursorKind.VAR_DECLBLANKdist1'
p2950
S'feature1483'
p2951
sS's7_featurex'
p2952
S'feature1484'
p2953
sS'BigramCursorKind.BINARY_OPERATORCursorKind.UNEXPOSED_EXPRBLANKtest_case'
p2954
S'feature1485'
p2955
sS's7_featurez'
p2956
S'feature1486'
p2957
sS'BigramCursorKind.BINARY_OPERATORCursorKind.UNEXPOSED_EXPRBLANKsup'
p2958
S'feature1487'
p2959
sS's7_featurep'
p2960
S'feature1488'
p2961
sS's7_featurer'
p2962
S'feature1489'
p2963
sS"l1_feature'l'"
p2964
S'feature902'
p2965
sS's7_featuret'
p2966
S'feature1491'
p2967
sS's7_featurev'
p2968
S'feature1492'
p2969
sS's7_featurew'
p2970
S'feature1493'
p2971
sS's7_featurewaterLevel'
p2972
S'feature1494'
p2973
sS'l1_featureresize'
p2974
S'feature1495'
p2975
sS'BigramCursorKind.COMPOUND_ASSIGNMENT_OPERATORCursorKind.ARRAY_SUBSCRIPT_EXPRBLANKBLANK'
p2976
S'feature1496'
p2977
sS'NodeTypeAvgDepCursorKind.TYPE_REF'
p2978
S'feature1497'
p2979
sS'l1_featureupper_bound'
p2980
S'feature1498'
p2981
sS'NodeTypeAvgDepCursorKind.CXX_THROW_EXPR'
p2982
S'feature1499'
p2983
sS'l1_featureotr'
p2984
S'feature2034'
p2985
sS's9_featureret'
p2986
S'feature1501'
p2987
sS's9_featureres'
p2988
S'feature1502'
p2989
sS's9_featurewas'
p2990
S'feature2144'
p2991
sS'l2elseif'
p2992
S'feature1505'
p2993
sS'l1_featurethrow'
p2994
S'feature1506'
p2995
sS'BigramCursorKind.ARRAY_SUBSCRIPT_EXPRCursorKind.UNEXPOSED_EXPRBLANKwas'
p2996
S'feature1507'
p2997
sS'BigramCursorKind.IF_STMTCursorKind.UNEXPOSED_EXPRBLANKBLANK'
p2998
S'feature1508'
p2999
sS'BigramCursorKind.CALL_EXPRCursorKind.UNEXPOSED_EXPRnumlenlo'
p3000
S'feature1509'
p3001
sS'l1_feature// true iff every neighbor q has a neighbor s which is not surrounded by mines and dist[s] = dist[q]-1'
p3002
S'feature1510'
p3003
sS'BigramCursorKind.DECL_STMTCursorKind.VAR_DECLBLANKf'
p3004
S'feature1511'
p3005
sS'l6_featurecppKeywordscase'
p3006
S'feature1512'
p3007
sS'BigramCursorKind.DECL_STMTCursorKind.VAR_DECLBLANKd'
p3008
S'feature1513'
p3009
sS'BigramCursorKind.DECL_STMTCursorKind.VAR_DECLBLANKb'
p3010
S'feature1514'
p3011
sS'BigramCursorKind.DECL_STMTCursorKind.VAR_DECLBLANKc'
p3012
S'feature93'
p3013
sS'BigramCursorKind.VAR_DECLCursorKind.STRING_LITERALou"our language is impossible to understandthere are twenty six factorial possibilitiesso it is okay if you want to just give up"'
p3014
S'feature95'
p3015
sS'BigramCursorKind.DECL_STMTCursorKind.VAR_DECLBLANKn'
p3016
S'feature1517'
p3017
sS'BigramCursorKind.DECL_STMTCursorKind.VAR_DECLBLANKo'
p3018
S'feature1518'
p3019
sS'BigramCursorKind.BINARY_OPERATORCursorKind.UNARY_OPERATORBLANKBLANK'
p3020
S'feature1374'
p3021
sS'BigramCursorKind.FUNCTION_DECLCursorKind.COMPOUND_STMTsolveBLANK'
p3022
S'feature104'
p3023
sS'BigramCursorKind.DECL_STMTCursorKind.VAR_DECLBLANKk'
p3024
S'feature1521'
p3025
sS'BigramCursorKind.CALL_EXPRCursorKind.UNEXPOSED_EXPRsolvesum'
p3026
S'feature1522'
p3027
sS'BigramCursorKind.DECL_STMTCursorKind.VAR_DECLBLANKi'
p3028
S'feature1523'
p3029
sS'BigramCursorKind.DECL_STMTCursorKind.VAR_DECLBLANKv'
p3030
S'feature1524'
p3031
sS'BigramCursorKind.DECL_STMTCursorKind.VAR_DECLBLANKw'
p3032
S'feature1525'
p3033
sS'BigramCursorKind.DECL_STMTCursorKind.VAR_DECLBLANKt'
p3034
S'feature1526'
p3035
sS'BigramCursorKind.DECL_STMTCursorKind.VAR_DECLBLANKr'
p3036
S'feature1527'
p3037
sS'BigramCursorKind.DECL_STMTCursorKind.VAR_DECLBLANKs'
p3038
S'feature1528'
p3039
sS'BigramCursorKind.DECL_STMTCursorKind.VAR_DECLBLANKp'
p3040
S'feature1529'
p3041
sS'BigramCursorKind.FUNCTION_DECLCursorKind.PARM_DECLcheckcx'
p3042
S'feature1530'
p3043
sS'l1_features2'
p3044
S'feature131'
p3045
sS'l1_features1'
p3046
S'feature1532'
p3047
sS'BigramCursorKind.DECL_STMTCursorKind.VAR_DECLBLANKz'
p3048
S'feature1533'
p3049
sS'BigramCursorKind.DECL_STMTCursorKind.VAR_DECLBLANKx'
p3050
S'feature1534'
p3051
sS'BigramCursorKind.DECL_STMTCursorKind.VAR_DECLBLANKD'
p3052
S'feature1535'
p3053
sS'BigramCursorKind.DECL_STMTCursorKind.VAR_DECLBLANKB'
p3054
S'feature1536'
p3055
sS'BigramCursorKind.BINARY_OPERATORCursorKind.UNEXPOSED_EXPRBLANKcur'
p3056
S'feature1537'
p3057
sS'l1_featuresel'
p3058
S'feature141'
p3059
sS'BigramCursorKind.DECL_STMTCursorKind.VAR_DECLBLANKN'
p3060
S'feature1539'
p3061
sS's9_featureval'
p3062
S'feature1540'
p3063
sS'BigramCursorKind.DECL_STMTCursorKind.VAR_DECLBLANKL'
p3064
S'feature1541'
p3065
sS'BigramCursorKind.DO_STMTCursorKind.BINARY_OPERATORBLANKBLANK'
p3066
S'feature1542'
p3067
sS's7tfidf_featureok'
p3068
S'feature1543'
p3069
sS's7tfidf_featureou'
p3070
S'feature1544'
p3071
sS'BigramCursorKind.DECL_STMTCursorKind.VAR_DECLBLANKT'
p3072
S'feature1545'
p3073
sS'l1_feature//cout << num << " " << (chainsize-1)*chainsize/2 << endl;'
p3074
S'feature1546'
p3075
sS'BigramCursorKind.DECL_STMTCursorKind.VAR_DECLBLANKS'
p3076
S'feature1547'
p3077
sS'BigramCursorKind.IF_STMTCursorKind.RETURN_STMTBLANKBLANK'
p3078
S'feature191'
p3079
sS's7tfidf_featurerotate'
p3080
S'feature1549'
p3081
sS'l1_featureset'
p3082
S'feature206'
p3083
sS'BigramCursorKind.BINARY_OPERATORCursorKind.UNEXPOSED_EXPRBLANKz'
p3084
S'feature1551'
p3085
sS'BigramCursorKind.BINARY_OPERATORCursorKind.UNEXPOSED_EXPRBLANKx'
p3086
S'feature1552'
p3087
sS'BigramCursorKind.BINARY_OPERATORCursorKind.UNEXPOSED_EXPRBLANKy'
p3088
S'feature1553'
p3089
sS'BigramCursorKind.BINARY_OPERATORCursorKind.UNEXPOSED_EXPRBLANKr'
p3090
S'feature1554'
p3091
sS'BigramCursorKind.BINARY_OPERATORCursorKind.UNEXPOSED_EXPRBLANKs'
p3092
S'feature1555'
p3093
sS'BigramCursorKind.BINARY_OPERATORCursorKind.UNEXPOSED_EXPRBLANKp'
p3094
S'feature1556'
p3095
sS'BigramCursorKind.BINARY_OPERATORCursorKind.UNEXPOSED_EXPRBLANKw'
p3096
S'feature1557'
p3097
sS'BigramCursorKind.BINARY_OPERATORCursorKind.UNEXPOSED_EXPRBLANKt'
p3098
S'feature1558'
p3099
sS'BigramCursorKind.BINARY_OPERATORCursorKind.UNEXPOSED_EXPRBLANKj'
p3100
S'feature1559'
p3101
sS'BigramCursorKind.BINARY_OPERATORCursorKind.UNEXPOSED_EXPRBLANKk'
p3102
S'feature1409'
p3103
sS'BigramCursorKind.BINARY_OPERATORCursorKind.UNEXPOSED_EXPRBLANKh'
p3104
S'feature1561'
p3105
sS'l1_featuresx'
p3106
S'feature292'
p3107
sS'BigramCursorKind.BINARY_OPERATORCursorKind.UNEXPOSED_EXPRBLANKn'
p3108
S'feature1563'
p3109
sS'l6_featurecppKeywordsthread_local'
p3110
S'feature1564'
p3111
sS'BigramCursorKind.BINARY_OPERATORCursorKind.UNEXPOSED_EXPRBLANKm'
p3112
S'feature1565'
p3113
sS'BigramCursorKind.BINARY_OPERATORCursorKind.UNEXPOSED_EXPRBLANKb'
p3114
S'feature308'
p3115
sS'BigramCursorKind.BINARY_OPERATORCursorKind.UNEXPOSED_EXPRBLANKc'
p3116
S'feature1567'
p3117
sS'l1_featuresize'
p3118
S'feature1142'
p3119
sS'BigramCursorKind.UNARY_OPERATORCursorKind.DECL_REF_EXPRBLANKcount'
p3120
S'feature1089'
p3121
sS'BigramCursorKind.BINARY_OPERATORCursorKind.UNEXPOSED_EXPRBLANKd'
p3122
S'feature1570'
p3123
sS'l1_featurest'
p3124
S'feature1571'
p3125
sS'l1_feature// try to match dest[0] with src[i]'
p3126
S'feature1572'
p3127
sS'BigramCursorKind.BINARY_OPERATORCursorKind.UNEXPOSED_EXPRBLANKmaxv'
p3128
S'feature1573'
p3129
sS'BigramCursorKind.BINARY_OPERATORCursorKind.UNEXPOSED_EXPRBLANKT'
p3130
S'feature1574'
p3131
sS'BigramCursorKind.BINARY_OPERATORCursorKind.UNEXPOSED_EXPRBLANKN'
p3132
S'feature1575'
p3133
sS's7_featuredist2'
p3134
S'feature1783'
p3135
sS'BigramCursorKind.BINARY_OPERATORCursorKind.UNEXPOSED_EXPRBLANKL'
p3136
S'feature360'
p3137
sS'BigramCursorKind.BINARY_OPERATORCursorKind.UNEXPOSED_EXPRBLANKB'
p3138
S'feature1578'
p3139
sS's9_featuremid'
p3140
S'feature1579'
p3141
sS'BigramCursorKind.BINARY_OPERATORCursorKind.UNEXPOSED_EXPRBLANKA'
p3142
S'feature1580'
p3143
sS'l1_feature"%lf"'
p3144
S'feature1581'
p3145
sS'BigramCursorKind.DECL_STMTCursorKind.VAR_DECLBLANKstate'
p3146
S'feature1582'
p3147
sS'l1_featuresizeof'
p3148
S'feature387'
p3149
sS'BigramCursorKind.DECL_STMTCursorKind.VAR_DECLBLANKtrain_res'
p3150
S'feature1584'
p3151
sS's7tfidf_featurehave'
p3152
S'feature1585'
p3153
sS'BigramCursorKind.CALL_EXPRCursorKind.INTEGER_LITERALsolveBLANK'
p3154
S'feature705'
p3155
sS's7_featurekp'
p3156
S'feature1586'
p3157
sS"l1_feature'p'"
p3158
S'feature1587'
p3159
sS'l1_featuregets'
p3160
S'feature1588'
p3161
sS'BigramCursorKind.CALL_EXPRCursorKind.UNEXPOSED_EXPRreachablereachable'
p3162
S'feature1589'
p3163
sS'l1_featureparent2'
p3164
S'feature1590'
p3165
sS'BigramCursorKind.BINARY_OPERATORCursorKind.DECL_REF_EXPRBLANKtmp'
p3166
S'feature1830'
p3167
sS'BigramCursorKind.DECL_STMTCursorKind.VAR_DECLBLANKst'
p3168
S'feature444'
p3169
sS'BigramCursorKind.UNEXPOSED_EXPRCursorKind.UNEXPOSED_EXPRww'
p3170
S'feature455'
p3171
sS'BigramCursorKind.UNARY_OPERATORCursorKind.DECL_REF_EXPRBLANKtx1'
p3172
S'feature1595'
p3173
sS'BigramCursorKind.DECL_STMTCursorKind.VAR_DECLBLANKsz'
p3174
S'feature1596'
p3175
sS'BigramCursorKind.FUNCTION_DECLCursorKind.COMPOUND_STMTcanMoveBLANK'
p3176
S'feature1597'
p3177
sS'BigramCursorKind.FUNCTION_DECLCursorKind.COMPOUND_STMTreachableBLANK'
p3178
S'feature1598'
p3179
sS'l1_featureborder'
p3180
S'feature1599'
p3181
sS'BigramCursorKind.DECL_STMTCursorKind.VAR_DECLBLANKaa'
p3182
S'feature1600'
p3183
sS'BigramCursorKind.VAR_DECLCursorKind.INIT_LIST_EXPRalphaBLANK'
p3184
S'feature1601'
p3185
sS'lay2feature'
p3186
S'feature1602'
p3187
sS's7_featurectr2'
p3188
S'feature1603'
p3189
sS'l1_featureprev_ok'
p3190
S'feature1604'
p3191
sS's7tfidf_featuregcd'
p3192
S'feature1605'
p3193
sS'l1_featureinsert'
p3194
S'feature2157'
p3195
sS"l1_feature// addt'l time w/o new farm"
p3196
S'feature1607'
p3197
sS'BigramCursorKind.CALL_EXPRCursorKind.DECL_REF_EXPRrotatex'
p3198
S'feature2158'
p3199
sS'l1_featurecctype'
p3200
S'feature1608'
p3201
sS'BigramCursorKind.VAR_DECLCursorKind.INTEGER_LITERALmaxnBLANK'
p3202
S'feature1609'
p3203
sS'BigramCursorKind.UNARY_OPERATORCursorKind.DECL_REF_EXPRBLANKchainsize'
p3204
S'feature1610'
p3205
sS'BigramCursorKind.DECL_STMTCursorKind.VAR_DECLBLANKs1'
p3206
S'feature1611'
p3207
sS'l1_featureiostream'
p3208
S'feature1612'
p3209
sS'l1_featurelevel_to_pass'
p3210
S'feature1613'
p3211
sS'l1_feature"%c"'
p3212
S'feature548'
p3213
sS'l1_featureradius'
p3214
S'feature311'
p3215
sS'BigramCursorKind.COMPOUND_STMTCursorKind.DO_STMTBLANKBLANK'
p3216
S'feature1591'
p3217
sS'BigramCursorKind.BINARY_OPERATORCursorKind.UNEXPOSED_EXPRBLANKdst'
p3218
S'feature1618'
p3219
sS'l1_feature1000000'
p3220
S'feature1619'
p3221
sS'BigramCursorKind.CONSTRUCTORCursorKind.PARM_DECLrectp2'
p3222
S'feature1620'
p3223
sS's9_featurebuf'
p3224
S'feature574'
p3225
sS'BigramCursorKind.DECL_STMTCursorKind.VAR_DECLBLANKdst'
p3226
S'feature2191'
p3227
sS's4_featureCursorKind.NAMESPACE_REF'
p3228
S'feature1623'
p3229
sS's4_featureCursorKind.CXX_BOOL_LITERAL_EXPR'
p3230
S'feature1624'
p3231
sS'BigramCursorKind.BINARY_OPERATORCursorKind.DECL_REF_EXPRBLANKlo'
p3232
S'feature924'
p3233
sS's4_featureCursorKind.FUNCTION_DECL'
p3234
S'feature1625'
p3235
sS'l1_featureclear'
p3236
S'feature1626'
p3237
sS'l1_featurerend'
p3238
S'feature1627'
p3239
sS'BigramCursorKind.VAR_DECLCursorKind.UNEXPOSED_EXPRppowBLANK'
p3240
S'feature1628'
p3241
sS'BigramCursorKind.BINARY_OPERATORCursorKind.UNEXPOSED_EXPRBLANKcount'
p3242
S'feature1629'
p3243
sS's7_featurehere'
p3244
S'feature1630'
p3245
sS'l1_feature"WA on: "'
p3246
S'feature1631'
p3247
sS'BigramCursorKind.VAR_DECLCursorKind.INTEGER_LITERALs1BLANK'
p3248
S'feature749'
p3249
sS'BigramCursorKind.VAR_DECLCursorKind.BINARY_OPERATORbufBLANK'
p3250
S'feature640'
p3251
sS'BigramCursorKind.BINARY_OPERATORCursorKind.DECL_REF_EXPRBLANKcx'
p3252
S'feature1634'
p3253
sS'BigramCursorKind.BINARY_OPERATORCursorKind.DECL_REF_EXPRBLANKcy'
p3254
S'feature1635'
p3255
sS'BigramCursorKind.BINARY_OPERATORCursorKind.UNEXPOSED_EXPRBLANKsecond'
p3256
S'feature1636'
p3257
sS'l1_featurerank'
p3258
S'feature664'
p3259
sS'l1_feature+='
p3260
S'feature673'
p3261
sS'l1_feature=='
p3262
S'feature1640'
p3263
sS'BigramCursorKind.DECL_STMTCursorKind.VAR_DECLBLANKsol'
p3264
S'feature1641'
p3265
sS'l1_feature++'
p3266
S'feature1642'
p3267
sS's9_featurenum'
p3268
S'feature1643'
p3269
sS's9_featureos'
p3270
S'feature1644'
p3271
sS's9_featureou'
p3272
S'feature1645'
p3273
sS'NodeTypeAvgDepCursorKind.DO_STMT'
p3274
S'feature1646'
p3275
sS'BigramCursorKind.BINARY_OPERATORCursorKind.UNEXPOSED_EXPRBLANKmax_int'
p3276
S'feature1647'
p3277
sS'l1_featurepossible'
p3278
S'feature2166'
p3279
sS's9_featurerect'
p3280
S'feature1648'
p3281
sS's9_featurecomplete'
p3282
S'feature1649'
p3283
sS's9_featuretest'
p3284
S'feature1797'
p3285
sS'BigramCursorKind.VAR_DECLCursorKind.INTEGER_LITERALdistBLANK'
p3286
S'feature1651'
p3287
sS's9_featureok'
p3288
S'feature1652'
p3289
sS'BigramCursorKind.BINARY_OPERATORCursorKind.DECL_REF_EXPRBLANKmin_m'
p3290
S'feature1654'
p3291
sS'l1_feature505'
p3292
S'feature1655'
p3293
sS'BigramCursorKind.FUNCTION_DECLCursorKind.COMPOUND_STMTunion_setsBLANK'
p3294
S'feature1656'
p3295
sS'BigramCursorKind.VAR_DECLCursorKind.CHARACTER_LITERALcBLANK'
p3296
S'feature1657'
p3297
sS's9_featuremax_int'
p3298
S'feature1658'
p3299
sS'l2for'
p3300
S'feature1659'
p3301
sS'l1_feature1000000000'
p3302
S'feature1478'
p3303
sS'BigramCursorKind.COMPOUND_ASSIGNMENT_OPERATORCursorKind.DECL_REF_EXPRBLANKst'
p3304
S'feature1660'
p3305
sS'BigramCursorKind.COMPOUND_ASSIGNMENT_OPERATORCursorKind.DECL_REF_EXPRBLANKsx'
p3306
S'feature1661'
p3307
sS'BigramCursorKind.BINARY_OPERATORCursorKind.UNEXPOSED_EXPRBLANKhi'
p3308
S'feature1662'
p3309
sS'BigramCursorKind.BINARY_OPERATORCursorKind.CALL_EXPRBLANKfind_set2'
p3310
S'feature1663'
p3311
sS'l2switch'
p3312
S'feature1664'
p3313
sS's7_featurecap'
p3314
S'feature1665'
p3315
sS's7_featuredx'
p3316
S'feature1666'
p3317
sS'BigramCursorKind.VAR_DECLCursorKind.DECL_REF_EXPRdxmaxn'
p3318
S'feature1667'
p3319
sS's7_featuresecond'
p3320
S'feature854'
p3321
sS'BigramCursorKind.COMPOUND_ASSIGNMENT_OPERATORCursorKind.BINARY_OPERATORBLANKBLANK'
p3322
S'feature1669'
p3323
sS'l1_featurescanf'
p3324
S'feature1670'
p3325
sS'l1_feature"Case #%d: "'
p3326
S'feature1671'
p3327
sS's7_featuretest'
p3328
S'feature1672'
p3329
sS'NodeTypeAvgDepCursorKind.NULL_STMT'
p3330
S'feature1673'
p3331
sS'l1_featureLsum'
p3332
S'feature1674'
p3333
sS's7_featuretoposort'
p3334
S'feature1675'
p3335
sS'BigramCursorKind.UNARY_OPERATORCursorKind.DECL_REF_EXPRBLANKsup'
p3336
S'feature1676'
p3337
sS'l2do'
p3338
S'feature1677'
p3339
sS'l1_featurelimits'
p3340
S'feature1678'
p3341
sS'BigramCursorKind.BINARY_OPERATORCursorKind.CALL_EXPRBLANKfind_set'
p3342
S'feature1679'
p3343
sS'l1_featurepb'
p3344
S'feature1680'
p3345
sS's9_featurearr'
p3346
S'feature1681'
p3347
sS's4_featureCursorKind.MEMBER_REF_EXPR'
p3348
S'feature1682'
p3349
sS'BigramCursorKind.VAR_DECLCursorKind.INTEGER_LITERALcsizeBLANK'
p3350
S'feature1683'
p3351
sS'BigramCursorKind.UNARY_OPERATORCursorKind.DECL_REF_EXPRBLANKj'
p3352
S'feature2197'
p3353
sS'l1_featurepw'
p3354
S'feature1684'
p3355
sS'l1_featurept'
p3356
S'feature1685'
p3357
sS'l1_featurepr'
p3358
S'feature1686'
p3359
sS'l1_featurepq'
p3360
S'feature1687'
p3361
sS'BigramCursorKind.UNEXPOSED_EXPRCursorKind.INTEGER_LITERALBLANKBLANK'
p3362
S'feature986'
p3363
sS'BigramCursorKind.UNARY_OPERATORCursorKind.DECL_REF_EXPRBLANKret'
p3364
S'feature1430'
p3365
sS's7tfidf_featuresurvive'
p3366
S'feature1689'
p3367
sS's7tfidf_featurecomplete'
p3368
S'feature1690'
p3369
sS'l1_feature10000000'
p3370
S'feature1691'
p3371
sS'l1_featureb1'
p3372
S'feature1692'
p3373
sS'l1_featureb2'
p3374
S'feature1693'
p3375
sS'BigramCursorKind.RETURN_STMTCursorKind.CXX_BOOL_LITERAL_EXPRBLANKBLANK'
p3376
S'feature1694'
p3377
sS's7tfidf_featurestart_y'
p3378
S'feature1695'
p3379
sS's7tfidf_featurestart_x'
p3380
S'feature1696'
p3381
sS'BigramCursorKind.FUNCTION_DECLCursorKind.PARM_DECLunion_setsa'
p3382
S'feature1697'
p3383
sS'BigramCursorKind.FUNCTION_DECLCursorKind.PARM_DECLunion_setsb'
p3384
S'feature1698'
p3385
sS'BigramCursorKind.DECL_STMTCursorKind.VAR_DECLBLANKlove'
p3386
S'feature1699'
p3387
sS'l7feature'
p3388
S'feature1700'
p3389
sS'l1_feature//for(int i=0; i<a.size(); i++) cout<<a[i]<<" ";'
p3390
S'feature1701'
p3391
sS'l1_featurep4'
p3392
S'feature1702'
p3393
sS'l1_featurep2'
p3394
S'feature1703'
p3395
sS'l1_featurep3'
p3396
S'feature1704'
p3397
sS'l1_featurep1'
p3398
S'feature1705'
p3399
sS's3_fatureCursorKind.UNARY_OPERATOR'
p3400
S'feature1706'
p3401
sS'l1_feature10'
p3402
S'feature1707'
p3403
sS'l1_feature-'
p3404
S'feature1708'
p3405
sS'l1_featureunpack'
p3406
S'feature1709'
p3407
sS'BigramCursorKind.FUNCTION_DECLCursorKind.PARM_DECLlesssb'
p3408
S'feature1024'
p3409
sS'BigramCursorKind.FUNCTION_DECLCursorKind.PARM_DECLlesssa'
p3410
S'feature1711'
p3411
sS'l1_feature"Case #%d: %.9lf\\n"'
p3412
S'feature1712'
p3413
sS'NodeTypeAvgDepCursorKind.PARM_DECL'
p3414
S'feature1713'
p3415
sS'BigramCursorKind.BINARY_OPERATORCursorKind.DECL_REF_EXPRBLANKadd_r'
p3416
S'feature2181'
p3417
sS'BigramCursorKind.BINARY_OPERATORCursorKind.UNEXPOSED_EXPRBLANKfirst'
p3418
S'feature1715'
p3419
sS'BigramCursorKind.FOR_STMTCursorKind.COMPOUND_STMTBLANKBLANK'
p3420
S'feature2182'
p3421
sS'l1_feature"%d%d"'
p3422
S'feature1717'
p3423
sS'l1_featureeff_l'
p3424
S'feature1718'
p3425
sS's9_featureinv'
p3426
S'feature1719'
p3427
sS'BigramCursorKind.VAR_DECLCursorKind.UNEXPOSED_EXPRtx1cx'
p3428
S'feature1720'
p3429
sS's7_featurecheck2'
p3430
S'feature761'
p3431
sS'BigramCursorKind.BINARY_OPERATORCursorKind.UNEXPOSED_EXPRBLANKnode'
p3432
S'feature1722'
p3433
sS'l1_featurecontinue'
p3434
S'feature1723'
p3435
sS's9_featureind'
p3436
S'feature1229'
p3437
sS'l1_featurecurr'
p3438
S'feature1725'
p3439
sS'BigramCursorKind.FUNCTION_DECLCursorKind.PARM_DECLsurvivedx'
p3440
S'feature1726'
p3441
sS'l1_feature" fork-ring"'
p3442
S'feature1727'
p3443
sS'BigramCursorKind.VAR_DECLCursorKind.INIT_LIST_EXPRmapBLANK'
p3444
S'feature1728'
p3445
sS's7_featurewas'
p3446
S'feature1729'
p3447
sS's7_featuremake_pair'
p3448
S'feature1730'
p3449
sS'l6_featurecppKeywordschar32_t'
p3450
S'feature1731'
p3451
sS'BigramCursorKind.FUNCTION_DECLCursorKind.PARM_DECLszcx'
p3452
S'feature1732'
p3453
sS'BigramCursorKind.FUNCTION_DECLCursorKind.PARM_DECLszcy'
p3454
S'feature1733'
p3455
sS"l1_feature'w'"
p3456
S'feature1734'
p3457
sS'BigramCursorKind.FUNCTION_DECLCursorKind.PARM_DECLchecknew_y'
p3458
S'feature1735'
p3459
sS'BigramCursorKind.FUNCTION_DECLCursorKind.PARM_DECLchecknew_x'
p3460
S'feature1736'
p3461
sS's7tfidf_featureppow'
p3462
S'feature1737'
p3463
sS'BigramCursorKind.UNEXPOSED_EXPRCursorKind.UNEXPOSED_EXPRsupsup'
p3464
S'feature1738'
p3465
sS'BigramCursorKind.UNARY_OPERATORCursorKind.DECL_REF_EXPRBLANKty2'
p3466
S'feature1739'
p3467
sS'BigramCursorKind.VAR_DECLCursorKind.UNEXPOSED_EXPRmodBLANK'
p3468
S'feature1740'
p3469
sS'lay1feature'
p3470
S'feature1741'
p3471
sS'BigramCursorKind.VAR_DECLCursorKind.BINARY_OPERATORjBLANK'
p3472
S'feature1742'
p3473
sS's7tfidf_featurec1'
p3474
S'feature2186'
p3475
sS'NodeTypeAvgDepCursorKind.CONSTRUCTOR'
p3476
S'feature1353'
p3477
sS's9_featuresecond'
p3478
S'feature1744'
p3479
sS'BigramCursorKind.VAR_DECLCursorKind.INTEGER_LITERALcountBLANK'
p3480
S'feature1376'
p3481
sS'BigramCursorKind.VAR_DECLCursorKind.UNEXPOSED_EXPRdstrBLANK'
p3482
S'feature1746'
p3483
sS'l1_feature//for(int i=0; i<b.size(); i++) cout<<b[i]<<" ";'
p3484
S'feature1747'
p3485
sS'l1_feature// printf("%.10lf\\n",waterLevel-lo[r][c]);e exit - but after three moves (taking three seconds) the water is at 20cm, which is only 10cm above the floor,'
p3486
S'feature2190'
p3487
sS'l2else'
p3488
S'feature1749'
p3489
sS'l1_featurenext'
p3490
S'feature1750'
p3491
sS's7tfidf_featurecheck'
p3492
S'feature1751'
p3493
sS'l6_featurecppKeywordstrue'
p3494
S'feature1752'
p3495
sS's9_featurehere'
p3496
S'feature1753'
p3497
sS'l15feature'
p3498
S'feature1754'
p3499
sS's7tfidf_featurewaiting'
p3500
S'feature1755'
p3501
sS'BigramCursorKind.UNARY_OPERATORCursorKind.DECL_REF_EXPRBLANKo'
p3502
S'feature2193'
p3503
sS's3_fatureCursorKind.ARRAY_SUBSCRIPT_EXPR'
p3504
S'feature1757'
p3505
sS'BigramCursorKind.VAR_DECLCursorKind.CALL_EXPRdimgcd'
p3506
S'feature1758'
p3507
sS'BigramCursorKind.UNARY_OPERATORCursorKind.DECL_REF_EXPRBLANKi'
p3508
S'feature1759'
p3509
sS'BigramCursorKind.STRUCT_DECLCursorKind.FIELD_DECLrectr'
p3510
S'feature1450'
p3511
sS's7_featuresurvive'
p3512
S'feature1761'
p3513
sS"l1_feature// addt'l time w/ new farm"
p3514
S'feature1762'
p3515
sS'BigramCursorKind.STRUCT_DECLCursorKind.FIELD_DECLrectw'
p3516
S'feature1763'
p3517
sS'BigramCursorKind.STRUCT_DECLCursorKind.FIELD_DECLrecth'
p3518
S'feature1764'
p3519
sS'l1_featuresets2'
p3520
S'feature1765'
p3521
sS'BigramCursorKind.BINARY_OPERATORCursorKind.UNEXPOSED_EXPRBLANKyc'
p3522
S'feature1766'
p3523
sS's9_featureans'
p3524
S'feature1767'
p3525
sS'l1_featurecin'
p3526
S'feature1768'
p3527
sS'BigramCursorKind.STRUCT_DECLCursorKind.FIELD_DECLrectc'
p3528
S'feature1769'
p3529
sS'BigramCursorKind.BINARY_OPERATORCursorKind.UNEXPOSED_EXPRBLANKp4'
p3530
S'feature1770'
p3531
sS'BigramCursorKind.VAR_DECLCursorKind.UNEXPOSED_EXPRwsurvive'
p3532
S'feature1771'
p3533
sS"l1_feature'e'"
p3534
S'feature1772'
p3535
sS'BigramCursorKind.IF_STMTCursorKind.COMPOUND_STMTBLANKBLANK'
p3536
S'feature1773'
p3537
sS'BigramCursorKind.BINARY_OPERATORCursorKind.UNEXPOSED_EXPRBLANKdist2'
p3538
S'feature1774'
p3539
sS'BigramCursorKind.BINARY_OPERATORCursorKind.UNEXPOSED_EXPRBLANKdist1'
p3540
S'feature1775'
p3541
sS'BigramCursorKind.UNEXPOSED_EXPRCursorKind.UNEXPOSED_EXPRBLANKBLANK'
p3542
S'feature1776'
p3543
sS's7tfidf_featurepack'
p3544
S'feature1777'
p3545
sS's9_feature"our language is impossible to understandthere are twenty six factorial possibilitiesso it is okay if you want to just give up"'
p3546
S'feature1778'
p3547
sS'BigramCursorKind.BINARY_OPERATORCursorKind.BINARY_OPERATORBLANKBLANK'
p3548
S'feature1779'
p3549
sS's7tfidf_featureress'
p3550
S'feature1780'
p3551
sS'BigramCursorKind.UNEXPOSED_EXPRCursorKind.UNEXPOSED_EXPRxx'
p3552
S'feature1781'
p3553
sS's7_featuredist1'
p3554
S'feature1782'
p3555
sS's9_featuresets'
p3556
S'feature1576'
p3557
sS'l1_featurereverse'
p3558
S'feature1784'
p3559
sS'BigramCursorKind.VAR_DECLCursorKind.CALL_EXPRinsiderect'
p3560
S'feature1785'
p3561
sS's7_featuresituation'
p3562
S'feature451'
p3563
sS'BigramCursorKind.DECL_STMTCursorKind.VAR_DECLBLANKtx2'
p3564
S'feature1787'
p3565
sS"l1_feature'k'"
p3566
S'feature1788'
p3567
sS'l1_featurewas'
p3568
S'feature1789'
p3569
sS'BigramCursorKind.IF_STMTCursorKind.IF_STMTBLANKBLANK'
p3570
S'feature1790'
p3571
sS'BigramCursorKind.VAR_DECLCursorKind.BINARY_OPERATORmaxnBLANK'
p3572
S'feature1791'
p3573
sS'l1_featurecur'
p3574
S'feature1792'
p3575
sS'l1_featurerect'
p3576
S'feature1793'
p3577
sS'BigramCursorKind.DECL_STMTCursorKind.VAR_DECLBLANKwaterLevel'
p3578
S'feature1794'
p3579
sS'BigramCursorKind.ARRAY_SUBSCRIPT_EXPRCursorKind.UNEXPOSED_EXPRBLANKdp'
p3580
S'feature1795'
p3581
sS'l1_featureattempt'
p3582
S'feature1796'
p3583
sS'BigramCursorKind.MEMBER_REF_EXPRCursorKind.DECL_REF_EXPRrinside'
p3584
S'feature1650'
p3585
sS'BigramCursorKind.ARRAY_SUBSCRIPT_EXPRCursorKind.UNEXPOSED_EXPRBLANKdx'
p3586
S'feature1798'
p3587
sS's7_featuremax_dist'
p3588
S'feature1799'
p3589
sS'l6_featurecppKeywordscontinue'
p3590
S'feature1800'
p3591
sS's3_fatureCursorKind.CONSTRUCTOR'
p3592
S'feature1801'
p3593
sS'l3feature'
p3594
S'feature1802'
p3595
sS'BigramCursorKind.VAR_DECLCursorKind.INTEGER_LITERALstarsBLANK'
p3596
S'feature1803'
p3597
sS'l1_featurebd'
p3598
S'feature1710'
p3599
sS's7_featuretest_case'
p3600
S'feature1804'
p3601
sS's9_featurelo'
p3602
S'feature1410'
p3603
sS'l1_featurememory'
p3604
S'feature1806'
p3605
sS's9_featurell'
p3606
S'feature1807'
p3607
sS'l1_featurevalid'
p3608
S'feature1490'
p3609
sS's4_featureCursorKind.WHILE_STMT'
p3610
S'feature1808'
p3611
sS"l1_feature'\\n'"
p3612
S'feature1809'
p3613
sS'BigramCursorKind.BINARY_OPERATORCursorKind.UNEXPOSED_EXPRBLANKres'
p3614
S'feature1810'
p3615
sS'l1_feature"Volunteer cheated!\\n"'
p3616
S'feature1811'
p3617
sS'BigramCursorKind.VAR_DECLCursorKind.INTEGER_LITERALokBLANK'
p3618
S'feature1812'
p3619
sS'BigramCursorKind.BINARY_OPERATORCursorKind.UNEXPOSED_EXPRBLANKkp'
p3620
S'feature1813'
p3621
sS'BigramCursorKind.BINARY_OPERATORCursorKind.PAREN_EXPRBLANKBLANK'
p3622
S'feature1814'
p3623
sS'BigramCursorKind.VAR_DECLCursorKind.INTEGER_LITERALjBLANK'
p3624
S'feature1815'
p3625
sS'BigramCursorKind.BINARY_OPERATORCursorKind.UNEXPOSED_EXPRBLANKmid'
p3626
S'feature1820'
p3627
sS'NodeTypeAvgDepCursorKind.CHARACTER_LITERAL'
p3628
S'feature1817'
p3629
sS'l1_featuresup'
p3630
S'feature1818'
p3631
sS'l1_featurecount'
p3632
S'feature1819'
p3633
sS'l1_featuresum'
p3634
S'feature1816'
p3635
sS'BigramCursorKind.BINARY_OPERATORCursorKind.UNEXPOSED_EXPRBLANKex'
p3636
S'feature1821'
p3637
sS'l1_feature// _________'
p3638
S'feature1822'
p3639
sS'BigramCursorKind.BINARY_OPERATORCursorKind.DECL_REF_EXPRBLANKcsize'
p3640
S'feature35'
p3641
sS'l1_featurecy'
p3642
S'feature1824'
p3643
sS'l1_featurecx'
p3644
S'feature1825'
p3645
sS's7_featuremax_w'
p3646
S'feature1826'
p3647
sS'l1_featurecs'
p3648
S'feature1827'
p3649
sS'l1_featureassert'
p3650
S'feature1828'
p3651
sS'l1_featurech'
p3652
S'feature1829'
p3653
sS's7_featuremax_j'
p3654
S'feature1831'
p3655
sS'BigramCursorKind.VAR_DECLCursorKind.INTEGER_LITERALaddBLANK'
p3656
S'feature1832'
p3657
sS'l1_feature"Case #%d: %d %d\\n"'
p3658
S'feature1833'
p3659
sS's7_featurepush'
p3660
S'feature1834'
p3661
sS'l1_featurehave'
p3662
S'feature1835'
p3663
sS'l6_featurecppKeywordsextern'
p3664
S'feature1823'
p3665
sS's9_featuredstr'
p3666
S'feature1837'
p3667
sS's9_featuredfs'
p3668
S'feature1838'
p3669
sS'BigramCursorKind.DECL_STMTCursorKind.VAR_DECLBLANKnum'
p3670
S'feature1839'
p3671
sS'l1_featuretoposort'
p3672
S'feature1840'
p3673
sS'l1_feature"Case #%d:"'
p3674
S'feature1841'
p3675
sS'BigramCursorKind.ARRAY_SUBSCRIPT_EXPRCursorKind.UNEXPOSED_EXPRBLANKr'
p3676
S'feature1842'
p3677
sS'BigramCursorKind.DECL_STMTCursorKind.VAR_DECLBLANKbuf'
p3678
S'feature1843'
p3679
sS'l1_feature"Volunteer cheated!"'
p3680
S'feature1844'
p3681
sS'BigramCursorKind.ARRAY_SUBSCRIPT_EXPRCursorKind.UNEXPOSED_EXPRBLANKx'
p3682
S'feature1845'
p3683
sS'l1_featurec2'
p3684
S'feature1846'
p3685
sS'l1_featurec1'
p3686
S'feature1847'
p3687
sS'l1_featuretmp_star'
p3688
S'feature1848'
p3689
sS'BigramCursorKind.ARRAY_SUBSCRIPT_EXPRCursorKind.UNEXPOSED_EXPRBLANKa'
p3690
S'feature1849'
p3691
sS'BigramCursorKind.ARRAY_SUBSCRIPT_EXPRCursorKind.UNEXPOSED_EXPRBLANKb'
p3692
S'feature1850'
p3693
sS'l1_feature" "'
p3694
S'feature1851'
p3695
sS'BigramCursorKind.ARRAY_SUBSCRIPT_EXPRCursorKind.UNEXPOSED_EXPRBLANKd'
p3696
S'feature1852'
p3697
sS'l1_featurestars_to_gain'
p3698
S'feature1853'
p3699
sS'BigramCursorKind.ARRAY_SUBSCRIPT_EXPRCursorKind.UNEXPOSED_EXPRBLANKi'
p3700
S'feature1854'
p3701
sS'BigramCursorKind.ARRAY_SUBSCRIPT_EXPRCursorKind.UNEXPOSED_EXPRBLANKj'
p3702
S'feature1855'
p3703
sS'BigramCursorKind.ARRAY_SUBSCRIPT_EXPRCursorKind.UNEXPOSED_EXPRBLANKl'
p3704
S'feature1856'
p3705
sS'BigramCursorKind.ARRAY_SUBSCRIPT_EXPRCursorKind.UNEXPOSED_EXPRBLANKn'
p3706
S'feature1857'
p3707
sS'l1_featurerank2'
p3708
S'feature1858'
p3709
sS's7_featurereachable'
p3710
S'feature1859'
p3711
sS'BigramCursorKind.VAR_DECLCursorKind.CALL_EXPRbufcheck'
p3712
S'feature1860'
p3713
sS'l1_featuremoves'
p3714
S'feature1861'
p3715
sS's7tfidf_featuretrain_res'
p3716
S'feature1862'
p3717
sS's9_featuresol'
p3718
S'feature1863'
p3719
sS's7tfidf_featureaa'
p3720
S'feature1864'
p3721
sS'l1_featuretop'
p3722
S'feature1865'
p3723
sS's7tfidf_featurefind_set2'
p3724
S'feature1866'
p3725
sS's7_featuretrain_set'
p3726
S'feature1867'
p3727
sS'BigramCursorKind.FUNCTION_DECLCursorKind.PARM_DECLdfsnode'
p3728
S'feature1868'
p3729
sS'l1_featurecstring'
p3730
S'feature1869'
p3731
sS's7tfidf_featurenum'
p3732
S'feature1870'
p3733
sS"l1_feature'#'"
p3734
S'feature1871'
p3735
sS'l1_featuretrain_res'
p3736
S'feature1872'
p3737
sS's7_featureinside'
p3738
S'feature1873'
p3739
sS'BigramCursorKind.CALL_EXPRCursorKind.UNEXPOSED_EXPRfind_setfind_set'
p3740
S'feature1874'
p3741
sS'BigramCursorKind.BINARY_OPERATORCursorKind.MEMBER_REF_EXPRBLANKw'
p3742
S'feature1875'
p3743
sS'l1_featureloc'
p3744
S'feature1876'
p3745
sS'BigramCursorKind.BINARY_OPERATORCursorKind.MEMBER_REF_EXPRBLANKr'
p3746
S'feature1877'
p3747
sS's7_featurestruct rect'
p3748
S'feature1878'
p3749
sS'BigramCursorKind.VAR_DECLCursorKind.INTEGER_LITERALansBLANK'
p3750
S'feature1879'
p3751
sS'BigramCursorKind.UNEXPOSED_EXPRCursorKind.MEMBER_REF_EXPRhh'
p3752
S'feature1880'
p3753
sS'BigramCursorKind.CALL_EXPRCursorKind.UNEXPOSED_EXPRsolvesolve'
p3754
S'feature1881'
p3755
sS'BigramCursorKind.VAR_DECLCursorKind.UNEXPOSED_EXPRrBLANK'
p3756
S'feature1882'
p3757
sS'lay6feature'
p3758
S'feature1883'
p3759
sS'BigramCursorKind.INIT_LIST_EXPRCursorKind.CHARACTER_LITERALBLANKBLANK'
p3760
S'feature1884'
p3761
sS's7tfidf_featurepossible'
p3762
S'feature1885'
p3763
sS's7_featureradius'
p3764
S'feature1886'
p3765
sS'BigramCursorKind.BINARY_OPERATORCursorKind.MEMBER_REF_EXPRBLANKh'
p3766
S'feature1887'
p3767
sS'l6_featurecppKeywordsclass'
p3768
S'feature1888'
p3769
sS'BigramCursorKind.DECL_STMTCursorKind.VAR_DECLBLANKtoleft'
p3770
S'feature1889'
p3771
sS'BigramCursorKind.DECL_STMTCursorKind.VAR_DECLBLANKminval'
p3772
S'feature1890'
p3773
sS'l1_feature"Case #%d: BAD\\n"'
p3774
S'feature1891'
p3775
sS'l1_featureadj'
p3776
S'feature1892'
p3777
sS'l1_featureclimits'
p3778
S'feature1893'
p3779
sS's7_featuretoleft'
p3780
S'feature2217'
p3781
sS"l1_feature'v'"
p3782
S'feature1895'
p3783
sS's4_featureCursorKind.UNEXPOSED_DECL'
p3784
S'feature1896'
p3785
sS'BigramCursorKind.VAR_DECLCursorKind.UNEXPOSED_EXPRhereBLANK'
p3786
S'feature1897'
p3787
sS'l6_featurecppKeywordsint'
p3788
S'feature1898'
p3789
sS'BigramCursorKind.IF_STMTCursorKind.CONTINUE_STMTBLANKBLANK'
p3790
S'feature1899'
p3791
sS'l6_featurecppKeywordsnullptr'
p3792
S'feature1900'
p3793
sS'l1_feature"%.7lf\\n"'
p3794
S'feature1901'
p3795
sS'BigramCursorKind.CALL_EXPRCursorKind.UNEXPOSED_EXPRsolvesecond'
p3796
S'feature39'
p3797
sS's9_featureress'
p3798
S'feature1903'
p3799
sS'l6_featurecppKeywordswhile'
p3800
S'feature1904'
p3801
sS'l1_featureiterator'
p3802
S'feature1905'
p3803
sS's7tfidf_featurenode'
p3804
S'feature1906'
p3805
sS'l1_feature//   |'
p3806
S'feature77'
p3807
sS'BigramCursorKind.ARRAY_SUBSCRIPT_EXPRCursorKind.UNEXPOSED_EXPRBLANKtmp'
p3808
S'feature1908'
p3809
sS'BigramCursorKind.DECL_STMTCursorKind.VAR_DECLBLANKmin_m'
p3810
S'feature1909'
p3811
sS'BigramCursorKind.UNEXPOSED_EXPRCursorKind.CALL_EXPRsolvesolve'
p3812
S'feature1910'
p3813
sS'BigramCursorKind.VAR_DECLCursorKind.INTEGER_LITERALdyBLANK'
p3814
S'feature1911'
p3815
sS'BigramCursorKind.DECL_STMTCursorKind.VAR_DECLBLANKmin_h'
p3816
S'feature1912'
p3817
sS's7_featurelove'
p3818
S'feature1913'
p3819
sS'BigramCursorKind.COMPOUND_STMTCursorKind.CALL_EXPRBLANKdfs'
p3820
S'feature1914'
p3821
sS'BigramCursorKind.DECL_STMTCursorKind.VAR_DECLBLANKcs'
p3822
S'feature1915'
p3823
sS's9_featuretoleft'
p3824
S'feature1916'
p3825
sS'BigramCursorKind.WHILE_STMTCursorKind.COMPOUND_ASSIGNMENT_OPERATORBLANKBLANK'
p3826
S'feature1917'
p3827
sS'l1_featuregrid'
p3828
S'feature1918'
p3829
sS's9_featurekol'
p3830
S'feature1637'
p3831
sS'BigramCursorKind.DECL_STMTCursorKind.VAR_DECLBLANKcy'
p3832
S'feature1920'
p3833
sS's7tfidf_featuretoleft'
p3834
S'feature1921'
p3835
sS'l1_featureline'
p3836
S'feature1922'
p3837
sS'BigramCursorKind.CALL_EXPRCursorKind.UNEXPOSED_EXPRfind_seta'
p3838
S'feature1923'
p3839
sS'l6_featurecppKeywordsvolatile'
p3840
S'feature1924'
p3841
sS'BigramCursorKind.CALL_EXPRCursorKind.UNEXPOSED_EXPRfind_setb'
p3842
S'feature1925'
p3843
sS's7_featurerect'
p3844
S'feature1926'
p3845
sS"l1_feature'f'"
p3846
S'feature1927'
p3847
sS'BigramCursorKind.ARRAY_SUBSCRIPT_EXPRCursorKind.UNEXPOSED_EXPRBLANKval'
p3848
S'feature1928'
p3849
sS'BigramCursorKind.DECL_STMTCursorKind.VAR_DECLBLANKtests'
p3850
S'feature1929'
p3851
sS'BigramCursorKind.FUNCTION_DECLCursorKind.COMPOUND_STMTsurviveBLANK'
p3852
S'feature1930'
p3853
sS's9_featurefind_set'
p3854
S'feature1931'
p3855
sS's7_featuretc'
p3856
S'feature1932'
p3857
sS's7tfidf_featurekol'
p3858
S'feature190'
p3859
sS'BigramCursorKind.BINARY_OPERATORCursorKind.UNEXPOSED_EXPRBLANKxc'
p3860
S'feature1934'
p3861
sS'BigramCursorKind.VAR_DECLCursorKind.INTEGER_LITERALchainsizeBLANK'
p3862
S'feature1935'
p3863
sS's7_featuretp'
p3864
S'feature1936'
p3865
sS's7_featurett'
p3866
S'feature1937'
p3867
sS's7_featuresolve1'
p3868
S'feature1938'
p3869
sS's9_featuresolve1'
p3870
S'feature1939'
p3871
sS'BigramCursorKind.BINARY_OPERATORCursorKind.UNEXPOSED_EXPRBLANKbuf'
p3872
S'feature405'
p3873
sS'BigramCursorKind.BINARY_OPERATORCursorKind.UNEXPOSED_EXPRBLANKtc_num'
p3874
S'feature1688'
p3875
sS'BigramCursorKind.VAR_DECLCursorKind.INIT_LIST_EXPRdBLANK'
p3876
S'feature1942'
p3877
sS'l1_featurepred'
p3878
S'feature1943'
p3879
sS'l6_featurecppKeywordsgoto'
p3880
S'feature1944'
p3881
sS'BigramCursorKind.COMPOUND_ASSIGNMENT_OPERATORCursorKind.DECL_REF_EXPRBLANKdst'
p3882
S'feature325'
p3883
sS'l1_featureret'
p3884
S'feature1946'
p3885
sS's7_feature"our language is impossible to understandthere are twenty six factorial possibilitiesso it is okay if you want to just give up"'
p3886
S'feature329'
p3887
sS's9_featurep1'
p3888
S'feature1976'
p3889
sS'l1_feature"Impossible\\n"'
p3890
S'feature332'
p3891
sS'l1_featureprev'
p3892
S'feature1949'
p3893
sS's9_featureii'
p3894
S'feature1950'
p3895
sS's9_featurein'
p3896
S'feature1951'
p3897
sS'BigramCursorKind.ARRAY_SUBSCRIPT_EXPRCursorKind.UNEXPOSED_EXPRBLANKvisited'
p3898
S'feature1952'
p3899
sS"l1_feature'j'"
p3900
S'feature1953'
p3901
sS'BigramCursorKind.COMPOUND_ASSIGNMENT_OPERATORCursorKind.DECL_REF_EXPRBLANKm'
p3902
S'feature1954'
p3903
sS'l1_feature"\\n"'
p3904
S'feature1955'
p3905
sS'BigramCursorKind.COMPOUND_ASSIGNMENT_OPERATORCursorKind.DECL_REF_EXPRBLANKt'
p3906
S'feature375'
p3907
sS'BigramCursorKind.COMPOUND_ASSIGNMENT_OPERATORCursorKind.DECL_REF_EXPRBLANKr'
p3908
S'feature1958'
p3909
sS's4_featureCursorKind.BINARY_OPERATOR'
p3910
S'feature1959'
p3911
sS's7_featuret1'
p3912
S'feature383'
p3913
sS'BigramCursorKind.UNARY_OPERATORCursorKind.DECL_REF_EXPRBLANKtest_case'
p3914
S'feature1961'
p3915
sS's7_featuret2'
p3916
S'feature386'
p3917
sS'BigramCursorKind.COMPOUND_ASSIGNMENT_OPERATORCursorKind.DECL_REF_EXPRBLANKz'
p3918
S'feature1963'
p3919
sS'BigramCursorKind.COMPOUND_ASSIGNMENT_OPERATORCursorKind.DECL_REF_EXPRBLANKx'
p3920
S'feature1964'
p3921
sS'BigramCursorKind.VAR_DECLCursorKind.ARRAY_SUBSCRIPT_EXPRstateBLANK'
p3922
S'feature1965'
p3923
sS's7tfidf_featuremap'
p3924
S'feature1966'
p3925
sS'BigramCursorKind.CALL_EXPRCursorKind.DECL_REF_EXPRrotatenew_y'
p3926
S'feature1967'
p3927
sS'BigramCursorKind.CALL_EXPRCursorKind.DECL_REF_EXPRrotatenew_x'
p3928
S'feature1968'
p3929
sS'BigramCursorKind.ARRAY_SUBSCRIPT_EXPRCursorKind.UNEXPOSED_EXPRBLANKs'
p3930
S'feature1957'
p3931
sS'BigramCursorKind.FUNCTION_DECLCursorKind.PARM_DECLcheck2str'
p3932
S'feature1970'
p3933
sS'l5feature'
p3934
S'feature1971'
p3935
sS'BigramCursorKind.ARRAY_SUBSCRIPT_EXPRCursorKind.UNEXPOSED_EXPRBLANKy'
p3936
S'feature1972'
p3937
sS'l1_featurefstream'
p3938
S'feature1973'
p3939
sS'l1_feature//at least p point if (p-1)*2 + p >= res for not surprising: 3p-2>=res'
p3940
S'feature1974'
p3941
sS'BigramCursorKind.BINARY_OPERATORCursorKind.CXX_BOOL_LITERAL_EXPRBLANKBLANK'
p3942
S'feature1975'
p3943
sS'BigramCursorKind.VAR_DECLCursorKind.STRING_LITERALin"ejp mysljylc kd kxveddknmc re jsicpdrysirbcpc ypc rtcsra dkh wyfrepkym veddknkmkrkcdde kr kd eoya kw aej tysr re ujdr lkgc jv"'
p3944
S'feature454'
p3945
sS"l1_feature'X'"
p3946
S'feature461'
p3947
sS'BigramCursorKind.VAR_DECLCursorKind.UNEXPOSED_EXPRkolBLANK'
p3948
S'feature1978'
p3949
sS'BigramCursorKind.COMPOUND_STMTCursorKind.RETURN_STMTBLANKBLANK'
p3950
S'feature1979'
p3951
sS'BigramCursorKind.DECL_STMTCursorKind.VAR_DECLBLANKmaxval'
p3952
S'feature1980'
p3953
sS'BigramCursorKind.VAR_DECLCursorKind.BINARY_OPERATORressBLANK'
p3954
S'feature1981'
p3955
sS's3_fatureCursorKind.CONTINUE_STMT'
p3956
S'feature1982'
p3957
sS'BigramCursorKind.ARRAY_SUBSCRIPT_EXPRCursorKind.UNEXPOSED_EXPRBLANKc'
p3958
S'feature1983'
p3959
sS's9_featurechainsize'
p3960
S'feature1984'
p3961
sS's7_featureptr'
p3962
S'feature1985'
p3963
sS's4_featureCursorKind.USING_DIRECTIVE'
p3964
S'feature1986'
p3965
sS's4_featureCursorKind.FLOATING_LITERAL'
p3966
S'feature1987'
p3967
sS's7_featuresoly'
p3968
S'feature1988'
p3969
sS's7_featuresolx'
p3970
S'feature1653'
p3971
sS's3_fatureCursorKind.STRUCT_DECL'
p3972
S'feature1990'
p3973
sS's4_featureCursorKind.VAR_DECL'
p3974
S'feature550'
p3975
sS's7tfidf_featureptr'
p3976
S'feature1992'
p3977
sS'BigramCursorKind.VAR_DECLCursorKind.CALL_EXPRnnumlen'
p3978
S'feature1993'
p3979
sS'l1_featurectr'
p3980
S'feature1994'
p3981
sS's7tfidf_featuretest_count'
p3982
S'feature1995'
p3983
sS'BigramCursorKind.BINARY_OPERATORCursorKind.UNEXPOSED_EXPRBLANKdx'
p3984
S'feature1996'
p3985
sS'BigramCursorKind.ARRAY_SUBSCRIPT_EXPRCursorKind.UNEXPOSED_EXPRBLANKused'
p3986
S'feature1997'
p3987
sS's7_featurejj'
p3988
S'feature563'
p3989
sS's7tfidf_featurecap'
p3990
S'feature1998'
p3991
sS'BigramCursorKind.VAR_DECLCursorKind.BINARY_OPERATORb2BLANK'
p3992
S'feature1999'
p3993
sS'BigramCursorKind.BINARY_OPERATORCursorKind.DECL_REF_EXPRBLANKa'
p3994
S'feature2000'
p3995
sS's7tfidf_featuresolve'
p3996
S'feature2001'
p3997
sS'l1_featurelevels'
p3998
S'feature2002'
p3999
sS'lay5feature'
p4000
S'feature2003'
p4001
sS's3_fatureCursorKind.MEMBER_REF_EXPR'
p4002
S'feature2004'
p4003
sS's7_featuretests'
p4004
S'feature2005'
p4005
sS'BigramCursorKind.FUNCTION_DECLCursorKind.PARM_DECLcheckstart_y'
p4006
S'feature2006'
p4007
sS'BigramCursorKind.FUNCTION_DECLCursorKind.PARM_DECLcheckstart_x'
p4008
S'feature2007'
p4009
sS's7tfidf_featureadj'
p4010
S'feature2008'
p4011
sS's7tfidf_featureadd'
p4012
S'feature2009'
p4013
sS'l1_featurenr'
p4014
S'feature2010'
p4015
sS's7tfidf_featurevisited'
p4016
S'feature2011'
p4017
sS's7tfidf_featurewas'
p4018
S'feature2012'
p4019
sS'BigramCursorKind.FUNCTION_DECLCursorKind.COMPOUND_STMTszcBLANK'
p4020
S'feature670'
p4021
sS'l6feature'
p4022
S'feature2014'
p4023
sS'BigramCursorKind.FUNCTION_DECLCursorKind.COMPOUND_STMTcheck2BLANK'
p4024
S'feature2015'
p4025
sS's7_featureargv'
p4026
S'feature2016'
p4027
sS's7tfidf_featurepr'
p4028
S'feature2017'
p4029
sS's7tfidf_featurepw'
p4030
S'feature2018'
p4031
sS'BigramCursorKind.CALL_EXPRCursorKind.UNEXPOSED_EXPRsolve_plast'
p4032
S'feature2019'
p4033
sS'BigramCursorKind.VAR_DECLCursorKind.INTEGER_LITERALstBLANK'
p4034
S'feature2020'
p4035
sS's7tfidf_featurepc'
p4036
S'feature2021'
p4037
sS's7_featureargc'
p4038
S'feature2022'
p4039
sS's9_featurewaterLevel'
p4040
S'feature722'
p4041
sS'l1_featureendif'
p4042
S'feature2024'
p4043
sS'l1_featurestd'
p4044
S'feature2025'
p4045
sS'l1_featureunion_sets'
p4046
S'feature2026'
p4047
sS'l1_featurestate'
p4048
S'feature2027'
p4049
sS's9_featuredest'
p4050
S'feature2028'
p4051
sS's9_featuremin_m'
p4052
S'feature2029'
p4053
sS's9_featuremin_h'
p4054
S'feature2030'
p4055
sS'BigramCursorKind.COMPOUND_ASSIGNMENT_OPERATORCursorKind.DECL_REF_EXPRBLANKtoleft'
p4056
S'feature2031'
p4057
sS'BigramCursorKind.DECL_STMTCursorKind.VAR_DECLBLANKmake_pair'
p4058
S'feature2032'
p4059
sS's7tfidf_featurep1'
p4060
S'feature2033'
p4061
sS's7tfidf_featurep3'
p4062
S'feature1500'
p4063
sS's7tfidf_featurep2'
p4064
S'feature771'
p4065
sS's7tfidf_featurep4'
p4066
S'feature2036'
p4067
sS'l1_feature" bridge-fork-ring"'
p4068
S'feature2037'
p4069
sS'BigramCursorKind.ARRAY_SUBSCRIPT_EXPRCursorKind.UNEXPOSED_EXPRBLANKnum'
p4070
S'feature2038'
p4071
sS's9_feature"ejp mysljylc kd kxveddknmc re jsicpdrysirbcpc ypc rtcsra dkh wyfrepkym veddknkmkrkcdde kr kd eoya kw aej tysr re ujdr lkgc jv"'
p4072
S'feature2039'
p4073
sS'BigramCursorKind.VAR_DECLCursorKind.UNEXPOSED_EXPRty2cy'
p4074
S'feature2238'
p4075
sS'l1_featuredist1'
p4076
S'feature2040'
p4077
sS'l1_featuredist2'
p4078
S'feature2041'
p4079
sS'l1_featurekp_w'
p4080
S'feature2042'
p4081
sS'l1_featurecassert'
p4082
S'feature2043'
p4083
sS'l1_feature||'
p4084
S'feature2044'
p4085
sS's9_featurey'
p4086
S'feature2045'
p4087
sS'BigramCursorKind.UNEXPOSED_EXPRCursorKind.UNEXPOSED_EXPRhh'
p4088
S'feature2046'
p4089
sS's7tfidf_featureb2'
p4090
S'feature1272'
p4091
sS'BigramCursorKind.BINARY_OPERATORCursorKind.CALL_EXPRBLANKnumlen'
p4092
S'feature694'
p4093
sS'BigramCursorKind.VAR_DECLCursorKind.UNEXPOSED_EXPRia'
p4094
S'feature1621'
p4095
sS'BigramCursorKind.BINARY_OPERATORCursorKind.UNEXPOSED_EXPRBLANKval'
p4096
S'feature918'
p4097
sS's7tfidf_featurectr2'
p4098
S'feature2051'
p4099
sS'l1_featureotr2'
p4100
S'feature2052'
p4101
sS's9_featuremax_w'
p4102
S'feature2053'
p4103
sS'BigramCursorKind.BINARY_OPERATORCursorKind.UNEXPOSED_EXPRBLANKtmp'
p4104
S'feature927'
p4105
sS'BigramCursorKind.BINARY_OPERATORCursorKind.DECL_REF_EXPRBLANKmid'
p4106
S'feature2055'
p4107
sS'l1_feature// cout<<r<<" "<<c<<" , "<<-u.f<<" | "<<dst[h-1][w-1]<<" | "<<waterLevel - lo[r][c]<<" "<<cost<<endl;'
p4108
S'feature2056'
p4109
sS'BigramCursorKind.VAR_DECLCursorKind.INTEGER_LITERALctr2BLANK'
p4110
S'feature2057'
p4111
sS"l1_feature'u'"
p4112
S'feature2058'
p4113
sS'l1_feature//  cout<<lo<<" , "<<sol<<endl;'
p4114
S'feature2059'
p4115
sS'BigramCursorKind.ARRAY_SUBSCRIPT_EXPRCursorKind.BINARY_OPERATORBLANKBLANK'
p4116
S'feature2060'
p4117
sS's9_featuremax_j'
p4118
S'feature2061'
p4119
sS'l1_feature" bridge"'
p4120
S'feature2062'
p4121
sS's7_featureind'
p4122
S'feature2063'
p4123
sS's7tfidf_featuremake_pair'
p4124
S'feature2064'
p4125
sS'BigramCursorKind.DECL_STMTCursorKind.VAR_DECLBLANKb1'
p4126
S'feature2065'
p4127
sS's9_featurerazn'
p4128
S'feature967'
p4129
sS'BigramCursorKind.DECL_STMTCursorKind.VAR_DECLBLANKb2'
p4130
S'feature2067'
p4131
sS'BigramCursorKind.FUNCTION_DECLCursorKind.COMPOUND_STMTmoveBLANK'
p4132
S'feature2068'
p4133
sS'BigramCursorKind.FUNCTION_DECLCursorKind.PARM_DECLsurvivep'
p4134
S'feature2069'
p4135
sS'l6_featurecppKeywordspublic'
p4136
S'feature2070'
p4137
sS's9_featurehi'
p4138
S'feature2071'
p4139
sS'BigramCursorKind.VAR_DECLCursorKind.UNEXPOSED_EXPRtoleftpush'
p4140
S'feature2072'
p4141
sS's4_featureCursorKind.COMPOUND_ASSIGNMENT_OPERATOR'
p4142
S'feature2073'
p4143
sS's7_featurevisited'
p4144
S'feature2074'
p4145
sS'BigramCursorKind.VAR_DECLCursorKind.INTEGER_LITERALmapBLANK'
p4146
S'feature2075'
p4147
sS'l6_featurecppKeywordsstatic'
p4148
S'feature2076'
p4149
sS'BigramCursorKind.CALL_EXPRCursorKind.CXX_BOOL_LITERAL_EXPRsolveBLANK'
p4150
S'feature2077'
p4151
sS's9_featureeps'
p4152
S'feature2078'
p4153
sS's7_featuretc_num'
p4154
S'feature2079'
p4155
sS'l6_featurecppKeywordsthis'
p4156
S'feature2080'
p4157
sS'l1_feature"Izlaz"'
p4158
S'feature2081'
p4159
sS'BigramCursorKind.BINARY_OPERATORCursorKind.DECL_REF_EXPRBLANKpossible'
p4160
S'feature2082'
p4161
sS's9_featuretest_count'
p4162
S'feature2083'
p4163
sS'BigramCursorKind.DECL_STMTCursorKind.VAR_DECLBLANKmax_dist'
p4164
S'feature1956'
p4165
sS'BigramCursorKind.FUNCTION_DECLCursorKind.PARM_DECLpackb'
p4166
S'feature1135'
p4167
sS'BigramCursorKind.FUNCTION_DECLCursorKind.PARM_DECLpacka'
p4168
S'feature1143'
p4169
sS'BigramCursorKind.UNARY_OPERATORCursorKind.DECL_REF_EXPRBLANKtt'
p4170
S'feature2087'
p4171
sS'BigramCursorKind.VAR_DECLCursorKind.BINARY_OPERATORdpBLANK'
p4172
S'feature2088'
p4173
sS'l1_feature"%20.10f"'
p4174
S'feature2089'
p4175
sS'BigramCursorKind.CALL_EXPRCursorKind.BINARY_OPERATORsolveBLANK'
p4176
S'feature2090'
p4177
sS'l1_featureassign'
p4178
S'feature2091'
p4179
sS'BigramCursorKind.STRUCT_DECLCursorKind.CONSTRUCTORrectrect'
p4180
S'feature1164'
p4181
sS'l1_feature"%d "'
p4182
S'feature2093'
p4183
sS's7tfidf_featureeps'
p4184
S'feature2094'
p4185
sS's4_featureCursorKind.COMPOUND_STMT'
p4186
S'feature2204'
p4187
sS'l6_featurecppKeywordsdefault'
p4188
S'feature2095'
p4189
sS'l1_featurecomp'
p4190
S'feature2096'
p4191
sS'BigramCursorKind.COMPOUND_STMTCursorKind.DECL_STMTBLANKBLANK'
p4192
S'feature2097'
p4193
sS's9_featureinside'
p4194
S'feature2098'
p4195
sS'BigramCursorKind.BINARY_OPERATORCursorKind.UNEXPOSED_EXPRBLANKdstr'
p4196
S'feature2099'
p4197
sS's7tfidf_featuresituation'
p4198
S'feature2100'
p4199
sS'l1_featuretest_count'
p4200
S'feature2101'
p4201
sS"l1_feature'i'"
p4202
S'feature2102'
p4203
sS's9_featurestart_y'
p4204
S'feature2247'
p4205
sS'l1_featuremin'
p4206
S'feature2104'
p4207
sS'l1_featuremid'
p4208
S'feature1241'
p4209
sS's7_featureii'
p4210
S'feature2106'
p4211
sS's7_featurein'
p4212
S'feature2107'
p4213
sS'l1_featureround'
p4214
S'feature2108'
p4215
sS's7tfidf_featureinv'
p4216
S'feature2109'
p4217
sS'BigramCursorKind.ARRAY_SUBSCRIPT_EXPRCursorKind.UNEXPOSED_EXPRBLANKmap'
p4218
S'feature2110'
p4219
sS'l1_featuregoto'
p4220
S'feature2111'
p4221
sS'l1_featureres2'
p4222
S'feature2112'
p4223
sS'l1_featureres1'
p4224
S'feature2113'
p4225
sS's7tfidf_featureind'
p4226
S'feature2114'
p4227
sS's3_fatureCursorKind.NAMESPACE_REF'
p4228
S'feature2115'
p4229
sS'l1_featuregetline'
p4230
S'feature2116'
p4231
sS'l1_featuremalloc'
p4232
S'feature2117'
p4233
sS'BigramCursorKind.VAR_DECLCursorKind.UNEXPOSED_EXPRoksolve'
p4234
S'feature2118'
p4235
sS'BigramCursorKind.VAR_DECLCursorKind.INTEGER_LITERALresBLANK'
p4236
S'feature1216'
p4237
sS'NodeTypeAvgDepCursorKind.BINARY_OPERATOR'
p4238
S'feature2120'
p4239
sS'BigramCursorKind.UNEXPOSED_EXPRCursorKind.ARRAY_SUBSCRIPT_EXPRBLANKBLANK'
p4240
S'feature2121'
p4241
sS's9_featureparent'
p4242
S'feature2122'
p4243
sS'l6_featurecppKeywordsusing'
p4244
S'feature2123'
p4245
sS's7_featurevis'
p4246
S'feature2124'
p4247
sS'l1_featurebridge'
p4248
S'feature2125'
p4249
sS'BigramCursorKind.VAR_DECLCursorKind.INTEGER_LITERALcsBLANK'
p4250
S'feature2126'
p4251
sS'l6_featurecppKeywordsregister'
p4252
S'feature1352'
p4253
sS'l1_feature// ind - location of largest element'
p4254
S'feature2128'
p4255
sS'l1_featureress'
p4256
S'feature2129'
p4257
sS'BigramCursorKind.BINARY_OPERATORCursorKind.UNEXPOSED_EXPRBLANKnum'
p4258
S'feature2130'
p4259
sS's7_featuremin_h'
p4260
S'feature2131'
p4261
sS's7_featuremin_m'
p4262
S'feature1393'
p4263
sS'l6_featurecppKeywordstypedef'
p4264
S'feature2133'
p4265
sS'l1_featurepriority_queue'
p4266
S'feature2134'
p4267
sS's7_featureL'
p4268
S'feature2135'
p4269
sS'l1_featurestart_x'
p4270
S'feature2136'
p4271
sS'l1_featurestart_y'
p4272
S'feature1434'
p4273
sS's7tfidf_featurenumlen'
p4274
S'feature420'
p4275
sS'l1_featurepush'
p4276
S'feature2139'
p4277
sS'l1_featureaa'
p4278
S'feature2140'
p4279
sS'BigramCursorKind.DECL_STMTCursorKind.VAR_DECLBLANKret'
p4280
S'feature1476'
p4281
sS'l1_featureab'
p4282
S'feature2142'
p4283
sS'BigramCursorKind.DECL_STMTCursorKind.VAR_DECLBLANKres'
p4284
S'feature2143'
p4285
sS'NodeTypeAvgDepCursorKind.FIELD_DECL'
p4286
S'feature1504'
p4287
sS'BigramCursorKind.VAR_DECLCursorKind.BINARY_OPERATORt1BLANK'
p4288
S'feature669'
p4289
sS'l6_featurecppKeywordstypename'
p4290
S'feature2146'
p4291
sS's7tfidf_feature"ejp mysljylc kd kxveddknmc re jsicpdrysirbcpc ypc rtcsra dkh wyfrepkym veddknkmkrkcdde kr kd eoya kw aej tysr re ujdr lkgc jv"'
p4292
S'feature2147'
p4293
sS'l12feature'
p4294
S'feature2148'
p4295
sS'l6_featurecppKeywordsdynamic_cast'
p4296
S'feature2149'
p4297
sS'l1_feature//  cout<<reachable(5)<<endl;'
p4298
S'feature2150'
p4299
sS'BigramCursorKind.BINARY_OPERATORCursorKind.DECL_REF_EXPRBLANKkol'
p4300
S'feature757'
p4301
sS'l1_feature"our language is impossible to understandthere are twenty six factorial possibilitiesso it is okay if you want to just give up"'
p4302
S'feature2151'
p4303
sS'l1_featurepc'
p4304
S'feature2152'
p4305
sS'l1_featurestdio'
p4306
S'feature2153'
p4307
sS'l1_featurestdin'
p4308
S'feature2154'
p4309
sS'BigramCursorKind.VAR_DECLCursorKind.UNEXPOSED_EXPRmin_mBLANK'
p4310
S'feature2155'
p4311
sS'BigramCursorKind.FUNCTION_DECLCursorKind.PARM_DECLchecky'
p4312
S'feature2156'
p4313
sS'BigramCursorKind.COMPOUND_ASSIGNMENT_OPERATORCursorKind.DECL_REF_EXPRBLANKans'
p4314
S'feature1606'
p4315
sS'BigramCursorKind.ARRAY_SUBSCRIPT_EXPRCursorKind.UNEXPOSED_EXPRBLANKc2'
p4316
S'feature656'
p4317
sS'BigramCursorKind.CALL_EXPRCursorKind.DECL_REF_EXPRrotatey'
p4318
S'feature2159'
p4319
sS'BigramCursorKind.BINARY_OPERATORCursorKind.UNEXPOSED_EXPRBLANKress'
p4320
S'feature2160'
p4321
sS'l6_featurecppKeywordsstatic_assert'
p4322
S'feature2161'
p4323
sS'BigramCursorKind.ARRAY_SUBSCRIPT_EXPRCursorKind.UNEXPOSED_EXPRBLANKsum'
p4324
S'feature1617'
p4325
sS's4_featureCursorKind.DECL_REF_EXPR'
p4326
S'feature2163'
p4327
sS'l1_featureprintf'
p4328
S'feature2164'
p4329
sS'l6_featurecppKeywordsdouble'
p4330
S'feature2165'
p4331
sS'BigramCursorKind.VAR_DECLCursorKind.INTEGER_LITERALstepsBLANK'
p4332
S'feature1443'
p4333
sS's7tfidf_featurecs'
p4334
S'feature2167'
p4335
sS'l1_feature"Izlaz2"'
p4336
S'feature2168'
p4337
sS's7tfidf_featurecx'
p4338
S'feature2169'
p4339
sS's7tfidf_featurecy'
p4340
S'feature2170'
p4341
sS'l1_featureval'
p4342
S'feature2171'
p4343
sS's7_featuredstr'
p4344
S'feature2172'
p4345
sS's3_fatureCursorKind.DECL_STMT'
p4346
S'feature2173'
p4347
sS'NodeTypeAvgDepCursorKind.INTEGER_LITERAL'
p4348
S'feature2174'
p4349
sS's7tfidf_featurerazn'
p4350
S'feature2175'
p4351
sS'BigramCursorKind.UNARY_OPERATORCursorKind.DECL_REF_EXPRBLANKtest'
p4352
S'feature2259'
p4353
sS'BigramCursorKind.VAR_DECLCursorKind.CXX_BOOL_LITERAL_EXPRresBLANK'
p4354
S'feature2177'
p4355
sS'BigramCursorKind.FUNCTION_DECLCursorKind.PARM_DECLmake_setv'
p4356
S'feature2178'
p4357
sS's3_fatureCursorKind.BINARY_OPERATOR'
p4358
S'feature2179'
p4359
sS'l1_featuretmp'
p4360
S'feature2180'
p4361
sS's9_featureused'
p4362
S'feature1714'
p4363
sS'l6_featurecppKeywordsnot'
p4364
S'feature1716'
p4365
sS'BigramCursorKind.FUNCTION_DECLCursorKind.PARM_DECLcheckm'
p4366
S'feature2183'
p4367
sS's4_featureCursorKind.CONTINUE_STMT'
p4368
S'feature2184'
p4369
sS'BigramCursorKind.BINARY_OPERATORCursorKind.DECL_REF_EXPRBLANKadd_c'
p4370
S'feature2185'
p4371
sS's7_featureh'
p4372
S'feature1469'
p4373
sS's7tfidf_featurec2'
p4374
S'feature2187'
p4375
sS'BigramCursorKind.UNARY_OPERATORCursorKind.DECL_REF_EXPRBLANKf'
p4376
S'feature2188'
p4377
sS'BigramCursorKind.UNARY_OPERATORCursorKind.DECL_REF_EXPRBLANKa'
p4378
S'feature2189'
p4379
sS'BigramCursorKind.UNARY_OPERATORCursorKind.DECL_REF_EXPRBLANKc'
p4380
S'feature1748'
p4381
sS'BigramCursorKind.UNARY_OPERATORCursorKind.DECL_REF_EXPRBLANKb'
p4382
S'feature514'
p4383
sS'BigramCursorKind.BINARY_OPERATORCursorKind.DECL_REF_EXPRBLANKres'
p4384
S'feature2192'
p4385
sS'l1_featureou'
p4386
S'feature1756'
p4387
sS'BigramCursorKind.BINARY_OPERATORCursorKind.MEMBER_REF_EXPRBLANKc'
p4388
S'feature2194'
p4389
sS'BigramCursorKind.VAR_DECLCursorKind.BINARY_OPERATORvalBLANK'
p4390
S'feature489'
p4391
sS's7_featureress'
p4392
S'feature2196'
p4393
sS's9_featureadd_c'
p4394
S'feature1503'
p4395
sS's7_featurechainsize'
p4396
S'feature2198'
p4397
sS'BigramCursorKind.UNARY_OPERATORCursorKind.DECL_REF_EXPRBLANKt'
p4398
S'feature2199'
p4399
sS'l1_featureok'
p4400
S'feature2200'
p4401
sS's4_featureCursorKind.STRUCT_DECL'
p4402
S'feature307'
p4403
sS'l1_featureex'
p4404
S'feature2202'
p4405
sS'l1_feature1e-9'
p4406
S'feature2203'
p4407
sS'l1_featuresolx'
p4408
S'feature114'
p4409
sS'l1_featuresoly'
p4410
S'feature2205'
p4411
sS'BigramCursorKind.BINARY_OPERATORCursorKind.UNEXPOSED_EXPRBLANKadd'
p4412
S'feature2206'
p4413
sS's7_featurenum'
p4414
S'feature732'
p4415
sS'BigramCursorKind.BINARY_OPERATORCursorKind.UNEXPOSED_EXPRBLANKsum'
p4416
S'feature120'
p4417
sS's4_featureCursorKind.ARRAY_SUBSCRIPT_EXPR'
p4418
S'feature2209'
p4419
sS'BigramCursorKind.IF_STMTCursorKind.CXX_THROW_EXPRBLANKBLANK'
p4420
S'feature2210'
p4421
sS'BigramCursorKind.DECL_STMTCursorKind.VAR_DECLBLANKdist2'
p4422
S'feature2211'
p4423
sS'l1_featureadd'
p4424
S'feature2212'
p4425
sS's9_featurereachable'
p4426
S'feature2213'
p4427
sS'BigramCursorKind.VAR_DECLCursorKind.UNEXPOSED_EXPRnuma'
p4428
S'feature2214'
p4429
sS'NodeTypeAvgDepCursorKind.PAREN_EXPR'
p4430
S'feature2215'
p4431
sS"l1_feature't'"
p4432
S'feature2216'
p4433
sS'BigramCursorKind.CALL_EXPRCursorKind.BINARY_OPERATORcheck2BLANK'
p4434
S'feature1894'
p4435
sS's7_featureval'
p4436
S'feature2218'
p4437
sS's7tfidf_featurefirst'
p4438
S'feature2219'
p4439
sS's7_featurey'
p4440
S'feature2220'
p4441
sS'l1_featuremin_h'
p4442
S'feature2221'
p4443
sS'l6_featurecppKeywordsxor'
p4444
S'feature2222'
p4445
sS'l1_featuremin_m'
p4446
S'feature2223'
p4447
sS'l1_featurenum'
p4448
S'feature2224'
p4449
sS'l1_feature"Case #%d: %d\\n"'
p4450
S'feature2225'
p4451
sS'l1_featurenext_permutation'
p4452
S'feature2226'
p4453
sS'l1_feature// |____|'
p4454
S'feature2227'
p4455
sS's7tfidf_featuredest'
p4456
S'feature2228'
p4457
sS's9_featureyc'
p4458
S'feature2229'
p4459
sS'BigramCursorKind.CALL_EXPRCursorKind.UNEXPOSED_EXPRcheck2check2'
p4460
S'feature2230'
p4461
sS'l1_featurecstdlib'
p4462
S'feature2231'
p4463
sS'BigramCursorKind.CALL_EXPRCursorKind.UNEXPOSED_EXPRsurvivesurvive'
p4464
S'feature2232'
p4465
sS's9_featuretmp'
p4466
S'feature1538'
p4467
sS"l1_feature//shouldn't happen"
p4468
S'feature2084'
p4469
sS'l6_featurecppKeywordschar16_t'
p4470
S'feature2233'
p4471
sS'l1_feature//freopen("input.txt", "r", stdin);'
p4472
S'feature2234'
p4473
sS's7_features'
p4474
S'feature2235'
p4475
sS's7_featurekol'
p4476
S'feature2236'
p4477
sS's7_featurebuf'
p4478
S'feature2237'
p4479
sS's7tfidf_featuretoposort'
p4480
S'feature2162'
p4481
sS'l1_feature"ejp mysljylc kd kxveddknmc re jsicpdrysirbcpc ypc rtcsra dkh wyfrepkym veddknkmkrkcdde kr kd eoya kw aej tysr re ujdr lkgc jv"'
p4482
S'feature2239'
p4483
sS'BigramCursorKind.DECL_STMTCursorKind.VAR_DECLBLANKml'
p4484
S'feature2240'
p4485
sS'l1_featureargc'
p4486
S'feature2241'
p4487
sS'BigramCursorKind.DECL_STMTCursorKind.VAR_DECLBLANKstart_y'
p4488
S'feature2242'
p4489
sS'BigramCursorKind.DECL_STMTCursorKind.VAR_DECLBLANKstart_x'
p4490
S'feature2243'
p4491
sS's4_featureCursorKind.BREAK_STMT'
p4492
S'feature2244'
p4493
sS's7_featurestart_y'
p4494
S'feature2245'
p4495
sS'BigramCursorKind.BINARY_OPERATORCursorKind.UNEXPOSED_EXPRBLANKppow'
p4496
S'feature1232'
p4497
sS'l1_feature"Too Bad\\n"'
p4498
S'feature2103'
p4499
sS's9_featurestart_x'
p4500
S'feature2248'
p4501
sS'l2while'
p4502
S'feature2249'
p4503
sS's7tfidf_featuretrain_set'
p4504
S'feature2250'
p4505
sS's9_featurevalid'
p4506
S'feature2251'
p4507
sS'BigramCursorKind.ARRAY_SUBSCRIPT_EXPRCursorKind.UNEXPOSED_EXPRBLANKfirst'
p4508
S'feature2253'
p4509
sS'BigramCursorKind.FOR_STMTCursorKind.CALL_EXPRBLANKsolve'
p4510
S'feature2254'
p4511
sS"l1_feature'z'"
p4512
S'feature2255'
p4513
sS'l1_featurebegin'
p4514
S'feature2256'
p4515
sS'l1_featurenode'
p4516
S'feature2257'
p4517
sS"l1_feature'h'"
p4518
S'feature2258'
p4519
sS's7tfidf_featurecsize'
p4520
S'feature2176'
p4521
sS'BigramCursorKind.BINARY_OPERATORCursorKind.DECL_REF_EXPRBLANKsol'
p4522
S'feature2260'
p4523
sS'BigramCursorKind.VAR_DECLCursorKind.UNEXPOSED_EXPRtf'
p4524
S'feature2261'
p4525
sS's9_featurekp'
p4526
S'feature2262'
p4527
sS'l1_featureflag'
p4528
S'feature2263'
p4529
sS'BigramCursorKind.VAR_DECLCursorKind.BINARY_OPERATORmidBLANK'
p4530
S'feature2264'
p4531
sS'BigramCursorKind.VAR_DECLCursorKind.UNEXPOSED_EXPRaaA'
p4532
S'feature2265'
p4533
sS'NodeTypeAvgDepCursorKind.UNEXPOSED_DECL'
p4534
S'feature2266'
p4535
sS'l1_featureshort'
p4536
S'feature2267'
p4537
sS'l1_featureendl'
p4538
S'feature2268'
p4539
sS's7_featurenew_y'
p4540
S'feature2269'
p4541
sS's7_featurenew_x'
p4542
S'feature2270'
p4543
s.